(dp0
S'SALICON_filename'
p1
(lp2
S'000000000133.png'
p3
aS'000000000164.png'
p4
aS'000000000192.png'
p5
aS'000000000196.png'
p6
aS'000000000208.png'
p7
aS'000000000257.png'
p8
aS'000000000387.png'
p9
aS'000000000397.png'
p10
aS'000000000520.png'
p11
aS'000000000569.png'
p12
aS'000000000589.png'
p13
aS'000000000675.png'
p14
aS'000000000692.png'
p15
aS'000000000711.png'
p16
aS'000000000715.png'
p17
aS'000000000761.png'
p18
aS'000000000810.png'
p19
aS'000000000939.png'
p20
aS'000000000987.png'
p21
aS'000000001000.png'
p22
aS'000000001270.png'
p23
aS'000000001342.png'
p24
aS'000000001369.png'
p25
aS'000000001532.png'
p26
aS'000000001561.png'
p27
aS'000000001573.png'
p28
aS'000000001599.png'
p29
aS'000000001668.png'
p30
aS'000000001675.png'
p31
aS'000000001700.png'
p32
aS'000000001799.png'
p33
aS'000000002006.png'
p34
aS'000000002124.png'
p35
aS'000000002153.png'
p36
aS'000000002154.png'
p37
aS'000000002179.png'
p38
aS'000000002302.png'
p39
aS'000000002346.png'
p40
aS'000000002434.png'
p41
aS'000000002640.png'
p42
aS'000000002822.png'
p43
aS'000000002839.png'
p44
aS'000000003001.png'
p45
aS'000000003067.png'
p46
aS'000000003091.png'
p47
aS'000000003093.png'
p48
aS'000000003192.png'
p49
aS'000000003326.png'
p50
aS'000000003580.png'
p51
aS'000000003590.png'
p52
aS'000000003716.png'
p53
aS'000000003742.png'
p54
aS'000000003779.png'
p55
aS'000000003786.png'
p56
aS'000000003983.png'
p57
aS'000000004265.png'
p58
aS'000000004296.png'
p59
aS'000000004795.png'
p60
aS'000000004988.png'
p61
aS'000000005001.png'
p62
aS'000000005038.png'
p63
aS'000000005105.png'
p64
aS'000000005107.png'
p65
aS'000000005282.png'
p66
aS'000000005385.png'
p67
aS'000000005535.png'
p68
aS'000000005599.png'
p69
aS'000000005617.png'
p70
aS'000000005713.png'
p71
aS'000000005816.png'
p72
aS'000000005965.png'
p73
aS'000000006580.png'
p74
aS'000000006608.png'
p75
aS'000000006701.png'
p76
aS'000000006712.png'
p77
aS'000000007274.png'
p78
aS'000000007298.png'
p79
aS'000000007414.png'
p80
aS'000000007511.png'
p81
aS'000000007519.png'
p82
aS'000000007570.png'
p83
aS'000000007574.png'
p84
aS'000000007726.png'
p85
aS'000000007938.png'
p86
aS'000000008005.png'
p87
aS'000000008021.png'
p88
aS'000000008119.png'
p89
aS'000000008204.png'
p90
aS'000000008333.png'
p91
aS'000000008583.png'
p92
aS'000000008594.png'
p93
aS'000000008599.png'
p94
aS'000000008665.png'
p95
aS'000000008711.png'
p96
aS'000000009002.png'
p97
aS'000000009156.png'
p98
aS'000000009175.png'
p99
aS'000000009236.png'
p100
aS'000000009400.png'
p101
aS'000000009483.png'
p102
aS'000000009527.png'
p103
aS'000000009769.png'
p104
aS'000000009891.png'
p105
aS'000000009914.png'
p106
aS'000000010138.png'
p107
aS'000000010216.png'
p108
aS'000000010393.png'
p109
aS'000000010705.png'
p110
aS'000000010707.png'
p111
aS'000000011291.png'
p112
aS'000000011305.png'
p113
aS'000000011360.png'
p114
aS'000000011494.png'
p115
aS'000000011696.png'
p116
aS'000000011796.png'
p117
aS'000000011887.png'
p118
aS'000000011987.png'
p119
aS'000000012085.png'
p120
aS'000000012209.png'
p121
aS'000000012230.png'
p122
aS'000000012238.png'
p123
aS'000000012375.png'
p124
aS'000000012443.png'
p125
aS'000000012700.png'
p126
aS'000000012764.png'
p127
aS'000000012818.png'
p128
aS'000000012991.png'
p129
aS'000000013081.png'
p130
aS'000000013383.png'
p131
aS'000000013490.png'
p132
aS'000000013659.png'
p133
aS'000000013729.png'
p134
aS'000000013943.png'
p135
aS'000000014108.png'
p136
aS'000000014226.png'
p137
aS'000000014248.png'
p138
aS'000000014297.png'
p139
aS'000000014353.png'
p140
aS'000000014494.png'
p141
aS'000000014635.png'
p142
aS'000000014713.png'
p143
aS'000000015017.png'
p144
aS'000000015157.png'
p145
aS'000000015335.png'
p146
aS'000000015345.png'
p147
aS'000000015497.png'
p148
aS'000000015725.png'
p149
aS'000000015846.png'
p150
aS'000000015850.png'
p151
aS'000000015947.png'
p152
aS'000000015956.png'
p153
aS'000000016382.png'
p154
aS'000000016439.png'
p155
aS'000000016593.png'
p156
aS'000000016775.png'
p157
aS'000000016896.png'
p158
aS'000000016961.png'
p159
aS'000000016977.png'
p160
aS'000000017018.png'
p161
aS'000000017095.png'
p162
aS'000000017207.png'
p163
aS'000000017282.png'
p164
aS'000000017311.png'
p165
aS'000000017313.png'
p166
aS'000000017350.png'
p167
aS'000000017425.png'
p168
aS'000000017482.png'
p169
aS'000000017627.png'
p170
aS'000000017667.png'
p171
aS'000000017708.png'
p172
aS'000000017714.png'
p173
aS'000000018150.png'
p174
aS'000000018193.png'
p175
aS'000000018224.png'
p176
aS'000000018442.png'
p177
aS'000000018575.png'
p178
aS'000000018687.png'
p179
aS'000000018699.png'
p180
aS'000000018837.png'
p181
aS'000000018903.png'
p182
aS'000000018918.png'
p183
aS'000000019132.png'
p184
aS'000000019158.png'
p185
aS'000000019176.png'
p186
aS'000000019292.png'
p187
aS'000000019432.png'
p188
aS'000000019456.png'
p189
aS'000000019523.png'
p190
aS'000000019544.png'
p191
aS'000000019624.png'
p192
aS'000000019631.png'
p193
aS'000000019763.png'
p194
aS'000000020038.png'
p195
aS'000000020161.png'
p196
aS'000000020268.png'
p197
aS'000000020273.png'
p198
aS'000000020334.png'
p199
aS'000000020410.png'
p200
aS'000000020485.png'
p201
aS'000000020641.png'
p202
aS'000000020646.png'
p203
aS'000000020650.png'
p204
aS'000000020671.png'
p205
aS'000000020748.png'
p206
aS'000000020784.png'
p207
aS'000000020925.png'
p208
aS'000000020979.png'
p209
aS'000000021503.png'
p210
aS'000000021639.png'
p211
aS'000000021971.png'
p212
aS'000000021979.png'
p213
aS'000000022072.png'
p214
aS'000000022118.png'
p215
aS'000000022129.png'
p216
aS'000000022158.png'
p217
aS'000000022199.png'
p218
aS'000000022271.png'
p219
aS'000000022446.png'
p220
aS'000000022474.png'
p221
aS'000000022671.png'
p222
aS'000000023121.png'
p223
aS'000000023201.png'
p224
aS'000000023320.png'
p225
aS'000000023807.png'
p226
aS'000000024061.png'
p227
aS'000000024104.png'
p228
aS'000000024112.png'
p229
aS'000000024223.png'
p230
aS'000000024243.png'
p231
aS'000000024396.png'
p232
aS'000000024553.png'
p233
aS'000000024610.png'
p234
aS'000000024693.png'
p235
aS'000000024880.png'
p236
aS'000000025123.png'
p237
aS'000000025282.png'
p238
aS'000000025393.png'
p239
aS'000000025521.png'
p240
aS'000000025550.png'
p241
aS'000000025560.png'
p242
aS'000000025595.png'
p243
aS'000000025603.png'
p244
aS'000000025853.png'
p245
aS'000000025860.png'
p246
aS'000000025986.png'
p247
aS'000000025997.png'
p248
aS'000000026363.png'
p249
aS'000000026611.png'
p250
aS'000000026730.png'
p251
aS'000000026768.png'
p252
aS'000000026992.png'
p253
aS'000000027478.png'
p254
aS'000000027493.png'
p255
aS'000000027519.png'
p256
aS'000000027578.png'
p257
aS'000000027620.png'
p258
aS'000000027642.png'
p259
aS'000000027656.png'
p260
aS'000000027789.png'
p261
aS'000000027975.png'
p262
aS'000000028273.png'
p263
aS'000000028540.png'
p264
aS'000000028675.png'
p265
aS'000000028682.png'
p266
aS'000000028719.png'
p267
aS'000000028874.png'
p268
aS'000000029059.png'
p269
aS'000000030534.png'
p270
aS'000000030657.png'
p271
aS'000000030706.png'
p272
aS'000000030785.png'
p273
aS'000000031519.png'
p274
aS'000000031569.png'
p275
aS'000000031636.png'
p276
aS'000000031735.png'
p277
aS'000000031773.png'
p278
aS'000000031796.png'
p279
aS'000000032001.png'
p280
aS'000000032300.png'
p281
aS'000000032334.png'
p282
aS'000000032777.png'
p283
aS'000000032887.png'
p284
aS'000000032907.png'
p285
aS'000000032965.png'
p286
aS'000000033008.png'
p287
aS'000000033073.png'
p288
aS'000000033109.png'
p289
aS'000000033114.png'
p290
aS'000000033116.png'
p291
aS'000000033345.png'
p292
aS'000000033377.png'
p293
aS'000000033489.png'
p294
aS'000000033645.png'
p295
aS'000000033652.png'
p296
aS'000000033717.png'
p297
aS'000000033835.png'
p298
aS'000000033904.png'
p299
aS'000000034114.png'
p300
aS'000000034139.png'
p301
aS'000000034196.png'
p302
aS'000000034438.png'
p303
aS'000000034445.png'
p304
aS'000000034452.png'
p305
aS'000000034464.png'
p306
aS'000000034471.png'
p307
aS'000000034500.png'
p308
aS'000000034580.png'
p309
aS'000000034582.png'
p310
aS'000000034657.png'
p311
aS'000000034701.png'
p312
aS'000000034786.png'
p313
aS'000000034820.png'
p314
aS'000000034873.png'
p315
aS'000000034950.png'
p316
aS'000000035176.png'
p317
aS'000000035269.png'
p318
aS'000000035326.png'
p319
aS'000000035429.png'
p320
aS'000000035435.png'
p321
aS'000000035711.png'
p322
aS'000000035726.png'
p323
aS'000000035825.png'
p324
aS'000000035891.png'
p325
aS'000000035894.png'
p326
aS'000000035975.png'
p327
aS'000000036077.png'
p328
aS'000000036460.png'
p329
aS'000000036492.png'
p330
aS'000000036508.png'
p331
aS'000000036614.png'
p332
aS'000000036661.png'
p333
aS'000000036810.png'
p334
aS'000000036844.png'
p335
aS'000000037017.png'
p336
aS'000000037367.png'
p337
aS'000000037403.png'
p338
aS'000000037615.png'
p339
aS'000000037616.png'
p340
aS'000000037670.png'
p341
aS'000000037671.png'
p342
aS'000000037688.png'
p343
aS'000000037709.png'
p344
aS'000000037729.png'
p345
aS'000000037740.png'
p346
aS'000000037751.png'
p347
aS'000000037988.png'
p348
aS'000000038034.png'
p349
aS'000000038073.png'
p350
aS'000000038186.png'
p351
aS'000000038439.png'
p352
aS'000000038540.png'
p353
aS'000000038769.png'
p354
aS'000000038817.png'
p355
aS'000000038865.png'
p356
aS'000000038875.png'
p357
aS'000000039081.png'
p358
aS'000000039405.png'
p359
aS'000000039589.png'
p360
aS'000000039663.png'
p361
aS'000000039718.png'
p362
aS'000000039769.png'
p363
aS'000000039811.png'
p364
aS'000000039852.png'
p365
aS'000000040426.png'
p366
aS'000000040497.png'
p367
aS'000000040602.png'
p368
aS'000000040681.png'
p369
aS'000000041110.png'
p370
aS'000000041247.png'
p371
aS'000000041279.png'
p372
aS'000000041507.png'
p373
aS'000000041603.png'
p374
aS'000000041923.png'
p375
aS'000000042091.png'
p376
aS'000000042260.png'
p377
aS'000000042399.png'
p378
aS'000000042408.png'
p379
aS'000000042482.png'
p380
aS'000000042492.png'
p381
aS'000000042641.png'
p382
aS'000000042953.png'
p383
aS'000000043092.png'
p384
aS'000000043170.png'
p385
aS'000000043243.png'
p386
aS'000000043261.png'
p387
aS'000000043286.png'
p388
aS'000000043305.png'
p389
aS'000000043345.png'
p390
aS'000000043375.png'
p391
aS'000000043561.png'
p392
aS'000000043670.png'
p393
aS'000000043673.png'
p394
aS'000000043851.png'
p395
aS'000000043944.png'
p396
aS'000000043961.png'
p397
aS'000000044054.png'
p398
aS'000000044136.png'
p399
aS'000000044171.png'
p400
aS'000000044263.png'
p401
aS'000000044269.png'
p402
aS'000000044347.png'
p403
aS'000000044621.png'
p404
aS'000000044934.png'
p405
aS'000000044950.png'
p406
aS'000000045094.png'
p407
aS'000000045197.png'
p408
aS'000000045229.png'
p409
aS'000000045248.png'
p410
aS'000000045406.png'
p411
aS'000000045463.png'
p412
aS'000000045550.png'
p413
aS'000000045594.png'
p414
aS'000000045721.png'
p415
aS'000000045746.png'
p416
aS'000000045775.png'
p417
aS'000000045844.png'
p418
aS'000000046031.png'
p419
aS'000000046048.png'
p420
aS'000000046101.png'
p421
aS'000000046252.png'
p422
aS'000000046775.png'
p423
aS'000000047112.png'
p424
aS'000000047121.png'
p425
aS'000000047225.png'
p426
aS'000000047263.png'
p427
aS'000000047361.png'
p428
aS'000000047511.png'
p429
aS'000000047603.png'
p430
aS'000000047775.png'
p431
aS'000000047916.png'
p432
aS'000000048281.png'
p433
aS'000000048475.png'
p434
aS'000000048684.png'
p435
aS'000000048905.png'
p436
aS'000000049165.png'
p437
aS'000000049194.png'
p438
aS'000000049731.png'
p439
aS'000000049985.png'
p440
aS'000000050006.png'
p441
aS'000000050099.png'
p442
aS'000000050148.png'
p443
aS'000000050350.png'
p444
aS'000000050354.png'
p445
aS'000000050411.png'
p446
aS'000000050422.png'
p447
aS'000000050485.png'
p448
aS'000000050514.png'
p449
aS'000000050561.png'
p450
aS'000000050627.png'
p451
aS'000000050752.png'
p452
aS'000000050828.png'
p453
aS'000000050942.png'
p454
aS'000000051025.png'
p455
aS'000000051028.png'
p456
aS'000000051143.png'
p457
aS'000000051167.png'
p458
aS'000000051203.png'
p459
aS'000000051376.png'
p460
aS'000000051500.png'
p461
aS'000000051628.png'
p462
aS'000000051702.png'
p463
aS'000000052232.png'
p464
aS'000000052238.png'
p465
aS'000000052282.png'
p466
aS'000000052290.png'
p467
aS'000000052435.png'
p468
aS'000000052546.png'
p469
aS'000000052644.png'
p470
aS'000000052664.png'
p471
aS'000000052835.png'
p472
aS'000000052982.png'
p473
aS'000000053263.png'
p474
aS'000000053328.png'
p475
aS'000000053629.png'
p476
aS'000000053697.png'
p477
aS'000000053802.png'
p478
aS'000000054039.png'
p479
aS'000000054091.png'
p480
aS'000000054092.png'
p481
aS'000000054252.png'
p482
aS'000000054337.png'
p483
aS'000000054355.png'
p484
aS'000000054358.png'
p485
aS'000000054517.png'
p486
aS'000000054533.png'
p487
aS'000000054598.png'
p488
aS'000000054870.png'
p489
aS'000000055017.png'
p490
aS'000000055429.png'
p491
aS'000000055466.png'
p492
aS'000000055467.png'
p493
aS'000000055528.png'
p494
aS'000000055768.png'
p495
aS'000000055868.png'
p496
aS'000000056002.png'
p497
aS'000000056070.png'
p498
aS'000000056129.png'
p499
aS'000000056288.png'
p500
aS'000000056326.png'
p501
aS'000000056344.png'
p502
aS'000000056430.png'
p503
aS'000000056433.png'
p504
aS'000000056567.png'
p505
aS'000000056724.png'
p506
aS'000000056752.png'
p507
aS'000000056960.png'
p508
aS'000000057363.png'
p509
aS'000000057508.png'
p510
aS'000000057542.png'
p511
aS'000000057672.png'
p512
aS'000000057827.png'
p513
aS'000000057878.png'
p514
aS'000000057904.png'
p515
aS'000000058254.png'
p516
aS'000000058304.png'
p517
aS'000000058344.png'
p518
aS'000000058350.png'
p519
aS'000000058569.png'
p520
aS'000000058690.png'
p521
aS'000000058886.png'
p522
aS'000000058937.png'
p523
aS'000000059000.png'
p524
aS'000000059015.png'
p525
aS'000000059201.png'
p526
aS'000000059328.png'
p527
aS'000000059383.png'
p528
aS'000000059455.png'
p529
aS'000000059598.png'
p530
aS'000000059666.png'
p531
aS'000000059710.png'
p532
aS'000000059744.png'
p533
aS'000000059774.png'
p534
aS'000000060125.png'
p535
aS'000000060128.png'
p536
aS'000000060448.png'
p537
aS'000000060641.png'
p538
aS'000000060823.png'
p539
aS'000000060835.png'
p540
aS'000000061108.png'
p541
aS'000000061171.png'
p542
aS'000000061315.png'
p543
aS'000000061471.png'
p544
aS'000000061507.png'
p545
aS'000000061520.png'
p546
aS'000000061647.png'
p547
aS'000000061693.png'
p548
aS'000000061735.png'
p549
aS'000000061899.png'
p550
aS'000000062023.png'
p551
aS'000000062251.png'
p552
aS'000000062491.png'
p553
aS'000000062510.png'
p554
aS'000000062703.png'
p555
aS'000000063328.png'
p556
aS'000000063525.png'
p557
aS'000000063740.png'
p558
aS'000000063939.png'
p559
aS'000000064015.png'
p560
aS'000000064121.png'
p561
aS'000000064196.png'
p562
aS'000000064510.png'
p563
aS'000000064621.png'
p564
aS'000000064703.png'
p565
aS'000000064909.png'
p566
aS'000000065001.png'
p567
aS'000000065008.png'
p568
aS'000000065258.png'
p569
aS'000000065358.png'
p570
aS'000000065567.png'
p571
aS'000000065604.png'
p572
aS'000000065798.png'
p573
aS'000000065948.png'
p574
aS'000000066001.png'
p575
aS'000000066038.png'
p576
aS'000000066072.png'
p577
aS'000000066239.png'
p578
aS'000000066397.png'
p579
aS'000000066468.png'
p580
aS'000000066568.png'
p581
aS'000000066632.png'
p582
aS'000000066635.png'
p583
aS'000000066675.png'
p584
aS'000000066685.png'
p585
aS'000000066717.png'
p586
aS'000000066769.png'
p587
aS'000000066771.png'
p588
aS'000000066827.png'
p589
aS'000000067018.png'
p590
aS'000000067065.png'
p591
aS'000000067106.png'
p592
aS'000000067122.png'
p593
aS'000000067207.png'
p594
aS'000000067255.png'
p595
aS'000000067412.png'
p596
aS'000000067616.png'
p597
aS'000000067757.png'
p598
aS'000000067788.png'
p599
aS'000000067833.png'
p600
aS'000000067956.png'
p601
aS'000000067975.png'
p602
aS'000000068005.png'
p603
aS'000000068059.png'
p604
aS'000000068093.png'
p605
aS'000000068114.png'
p606
aS'000000068128.png'
p607
aS'000000068300.png'
p608
aS'000000068387.png'
p609
aS'000000068418.png'
p610
aS'000000068435.png'
p611
aS'000000068525.png'
p612
aS'000000068765.png'
p613
aS'000000068771.png'
p614
aS'000000068814.png'
p615
aS'000000068833.png'
p616
aS'000000068881.png'
p617
aS'000000069000.png'
p618
aS'000000069015.png'
p619
aS'000000069140.png'
p620
aS'000000069293.png'
p621
aS'000000069366.png'
p622
aS'000000069536.png'
p623
aS'000000069544.png'
p624
aS'000000069668.png'
p625
aS'000000069750.png'
p626
aS'000000069827.png'
p627
aS'000000069906.png'
p628
aS'000000069914.png'
p629
aS'000000070048.png'
p630
aS'000000070190.png'
p631
aS'000000070478.png'
p632
aS'000000070657.png'
p633
aS'000000070987.png'
p634
aS'000000071136.png'
p635
aS'000000071171.png'
p636
aS'000000071302.png'
p637
aS'000000071563.png'
p638
aS'000000071826.png'
p639
aS'000000071929.png'
p640
aS'000000071938.png'
p641
aS'000000072315.png'
p642
aS'000000072376.png'
p643
aS'000000072536.png'
p644
aS'000000072582.png'
p645
aS'000000072657.png'
p646
aS'000000072795.png'
p647
aS'000000072810.png'
p648
aS'000000072813.png'
p649
aS'000000072944.png'
p650
aS'000000073209.png'
p651
aS'000000073256.png'
p652
aS'000000073326.png'
p653
aS'000000073470.png'
p654
aS'000000073753.png'
p655
aS'000000073861.png'
p656
aS'000000073973.png'
p657
aS'000000074001.png'
p658
aS'000000074209.png'
p659
aS'000000074256.png'
p660
aS'000000074412.png'
p661
aS'000000074638.png'
p662
aS'000000075006.png'
p663
aS'000000075023.png'
p664
aS'000000075183.png'
p665
aS'000000075285.png'
p666
aS'000000075327.png'
p667
aS'000000075372.png'
p668
aS'000000075527.png'
p669
aS'000000075563.png'
p670
aS'000000075612.png'
p671
aS'000000075696.png'
p672
aS'000000075806.png'
p673
aS'000000076384.png'
p674
aS'000000076416.png'
p675
aS'000000076468.png'
p676
aS'000000076518.png'
p677
aS'000000076547.png'
p678
aS'000000076588.png'
p679
aS'000000076595.png'
p680
aS'000000076619.png'
p681
aS'000000076625.png'
p682
aS'000000076844.png'
p683
aS'000000076942.png'
p684
aS'000000076994.png'
p685
aS'000000077050.png'
p686
aS'000000077396.png'
p687
aS'000000077415.png'
p688
aS'000000077615.png'
p689
aS'000000077648.png'
p690
aS'000000077681.png'
p691
aS'000000077811.png'
p692
aS'000000077889.png'
p693
aS'000000077951.png'
p694
aS'000000078060.png'
p695
aS'000000078176.png'
p696
aS'000000078188.png'
p697
aS'000000078420.png'
p698
aS'000000078478.png'
p699
aS'000000078537.png'
p700
aS'000000078696.png'
p701
aS'000000078748.png'
p702
aS'000000078823.png'
p703
aS'000000079860.png'
p704
aS'000000079906.png'
p705
aS'000000079955.png'
p706
aS'000000080104.png'
p707
aS'000000080131.png'
p708
aS'000000080698.png'
p709
aS'000000080714.png'
p710
aS'000000080895.png'
p711
aS'000000081035.png'
p712
aS'000000081054.png'
p713
aS'000000081079.png'
p714
aS'000000081210.png'
p715
aS'000000081228.png'
p716
aS'000000081248.png'
p717
aS'000000081287.png'
p718
aS'000000081315.png'
p719
aS'000000081394.png'
p720
aS'000000081661.png'
p721
aS'000000081738.png'
p722
aS'000000081812.png'
p723
aS'000000081998.png'
p724
aS'000000082174.png'
p725
aS'000000082263.png'
p726
aS'000000082338.png'
p727
aS'000000082456.png'
p728
aS'000000082468.png'
p729
aS'000000082554.png'
p730
aS'000000082668.png'
p731
aS'000000082787.png'
p732
aS'000000082889.png'
p733
aS'000000083036.png'
p734
aS'000000083283.png'
p735
aS'000000083462.png'
p736
aS'000000083761.png'
p737
aS'000000083844.png'
p738
aS'000000083850.png'
p739
aS'000000083925.png'
p740
aS'000000084170.png'
p741
aS'000000084270.png'
p742
aS'000000084362.png'
p743
aS'000000084442.png'
p744
aS'000000084540.png'
p745
aS'000000084592.png'
p746
aS'000000084650.png'
p747
aS'000000084694.png'
p748
aS'000000084866.png'
p749
aS'000000085029.png'
p750
aS'000000085157.png'
p751
aS'000000085183.png'
p752
aS'000000085195.png'
p753
aS'000000085340.png'
p754
aS'000000085390.png'
p755
aS'000000085556.png'
p756
aS'000000085632.png'
p757
aS'000000085795.png'
p758
aS'000000085814.png'
p759
aS'000000085826.png'
p760
aS'000000085940.png'
p761
aS'000000086011.png'
p762
aS'000000086135.png'
p763
aS'000000086426.png'
p764
aS'000000086429.png'
p765
aS'000000086516.png'
p766
aS'000000086646.png'
p767
aS'000000086650.png'
p768
aS'000000086755.png'
p769
aS'000000086884.png'
p770
aS'000000087038.png'
p771
aS'000000087144.png'
p772
aS'000000087383.png'
p773
aS'000000087393.png'
p774
aS'000000087429.png'
p775
aS'000000087456.png'
p776
aS'000000087588.png'
p777
aS'000000087740.png'
p778
aS'000000087998.png'
p779
aS'000000088031.png'
p780
aS'000000088183.png'
p781
aS'000000088244.png'
p782
aS'000000088252.png'
p783
aS'000000088269.png'
p784
aS'000000088349.png'
p785
aS'000000088436.png'
p786
aS'000000088513.png'
p787
aS'000000088562.png'
p788
aS'000000089210.png'
p789
aS'000000089359.png'
p790
aS'000000089362.png'
p791
aS'000000089378.png'
p792
aS'000000089556.png'
p793
aS'000000089589.png'
p794
aS'000000089743.png'
p795
aS'000000090020.png'
p796
aS'000000090108.png'
p797
aS'000000090138.png'
p798
aS'000000090373.png'
p799
aS'000000090432.png'
p800
aS'000000090616.png'
p801
aS'000000090645.png'
p802
aS'000000090659.png'
p803
aS'000000090707.png'
p804
aS'000000090787.png'
p805
aS'000000090804.png'
p806
aS'000000091045.png'
p807
aS'000000091080.png'
p808
aS'000000091263.png'
p809
aS'000000091283.png'
p810
aS'000000091318.png'
p811
aS'000000091326.png'
p812
aS'000000091500.png'
p813
aS'000000091617.png'
p814
aS'000000091654.png'
p815
aS'000000091779.png'
p816
aS'000000091883.png'
p817
aS'000000091909.png'
p818
aS'000000092091.png'
p819
aS'000000092131.png'
p820
aS'000000092134.png'
p821
aS'000000092462.png'
p822
aS'000000092519.png'
p823
aS'000000092602.png'
p824
aS'000000092683.png'
p825
aS'000000092765.png'
p826
aS'000000092801.png'
p827
aS'000000092815.png'
p828
aS'000000092998.png'
p829
aS'000000093314.png'
p830
aS'000000093353.png'
p831
aS'000000093476.png'
p832
aS'000000093620.png'
p833
aS'000000093763.png'
p834
aS'000000093893.png'
p835
aS'000000093948.png'
p836
aS'000000094052.png'
p837
aS'000000094379.png'
p838
aS'000000094422.png'
p839
aS'000000094651.png'
p840
aS'000000095062.png'
p841
aS'000000095227.png'
p842
aS'000000095251.png'
p843
aS'000000095297.png'
p844
aS'000000095375.png'
p845
aS'000000096043.png'
p846
aS'000000096048.png'
p847
aS'000000096110.png'
p848
aS'000000096207.png'
p849
aS'000000096215.png'
p850
aS'000000096226.png'
p851
aS'000000096288.png'
p852
aS'000000096306.png'
p853
aS'000000096351.png'
p854
aS'000000096539.png'
p855
aS'000000096832.png'
p856
aS'000000097036.png'
p857
aS'000000097146.png'
p858
aS'000000097240.png'
p859
aS'000000097264.png'
p860
aS'000000097379.png'
p861
aS'000000097479.png'
p862
aS'000000097561.png'
p863
aS'000000097579.png'
p864
aS'000000097679.png'
p865
aS'000000097693.png'
p866
aS'000000097696.png'
p867
aS'000000097809.png'
p868
aS'000000097857.png'
p869
aS'000000097958.png'
p870
aS'000000097964.png'
p871
aS'000000097967.png'
p872
aS'000000098003.png'
p873
aS'000000098054.png'
p874
aS'000000098520.png'
p875
aS'000000098523.png'
p876
aS'000000098658.png'
p877
aS'000000098683.png'
p878
aS'000000098721.png'
p879
aS'000000098729.png'
p880
aS'000000098839.png'
p881
aS'000000098895.png'
p882
aS'000000098979.png'
p883
aS'000000099026.png'
p884
aS'000000099039.png'
p885
aS'000000099179.png'
p886
aS'000000099230.png'
p887
aS'000000099341.png'
p888
aS'000000099348.png'
p889
aS'000000099428.png'
p890
aS'000000099567.png'
p891
aS'000000099584.png'
p892
aS'000000099645.png'
p893
aS'000000099794.png'
p894
aS'000000099875.png'
p895
aS'000000099938.png'
p896
aS'000000100000.png'
p897
aS'000000100081.png'
p898
aS'000000100083.png'
p899
aS'000000100132.png'
p900
aS'000000100187.png'
p901
aS'000000100238.png'
p902
aS'000000100245.png'
p903
aS'000000100283.png'
p904
aS'000000100306.png'
p905
aS'000000100539.png'
p906
aS'000000100850.png'
p907
aS'000000100977.png'
p908
aS'000000101053.png'
p909
aS'000000101088.png'
p910
aS'000000101189.png'
p911
aS'000000101762.png'
p912
aS'000000101933.png'
p913
aS'000000101936.png'
p914
aS'000000101969.png'
p915
aS'000000102240.png'
p916
aS'000000102625.png'
p917
aS'000000102837.png'
p918
aS'000000102904.png'
p919
aS'000000102978.png'
p920
aS'000000103027.png'
p921
aS'000000103114.png'
p922
aS'000000103122.png'
p923
aS'000000103509.png'
p924
aS'000000103558.png'
p925
aS'000000103806.png'
p926
aS'000000103855.png'
p927
aS'000000103870.png'
p928
aS'000000104091.png'
p929
aS'000000104150.png'
p930
aS'000000104326.png'
p931
aS'000000104392.png'
p932
aS'000000104495.png'
p933
aS'000000104568.png'
p934
aS'000000104589.png'
p935
aS'000000104625.png'
p936
aS'000000104801.png'
p937
aS'000000104865.png'
p938
aS'000000105040.png'
p939
aS'000000105052.png'
p940
aS'000000105156.png'
p941
aS'000000105291.png'
p942
aS'000000105465.png'
p943
aS'000000105538.png'
p944
aS'000000105711.png'
p945
aS'000000105732.png'
p946
aS'000000105782.png'
p947
aS'000000105884.png'
p948
aS'000000105885.png'
p949
aS'000000106053.png'
p950
aS'000000106180.png'
p951
aS'000000106235.png'
p952
aS'000000106244.png'
p953
aS'000000106338.png'
p954
aS'000000106344.png'
p955
aS'000000106356.png'
p956
aS'000000106389.png'
p957
aS'000000106392.png'
p958
aS'000000106411.png'
p959
aS'000000106453.png'
p960
aS'000000106617.png'
p961
aS'000000106810.png'
p962
aS'000000106909.png'
p963
aS'000000106920.png'
p964
aS'000000107123.png'
p965
aS'000000107304.png'
p966
aS'000000107596.png'
p967
aS'000000107800.png'
p968
aS'000000108208.png'
p969
aS'000000108425.png'
p970
aS'000000108484.png'
p971
aS'000000108548.png'
p972
aS'000000108681.png'
p973
aS'000000108803.png'
p974
aS'000000108838.png'
p975
aS'000000108904.png'
p976
aS'000000108923.png'
p977
aS'000000109291.png'
p978
aS'000000109361.png'
p979
aS'000000109441.png'
p980
aS'000000109532.png'
p981
aS'000000109819.png'
p982
aS'000000109916.png'
p983
aS'000000109976.png'
p984
aS'000000110027.png'
p985
aS'000000110048.png'
p986
aS'000000110081.png'
p987
aS'000000111099.png'
p988
aS'000000111104.png'
p989
aS'000000111211.png'
p990
aS'000000111341.png'
p991
aS'000000111448.png'
p992
aS'000000111547.png'
p993
aS'000000111593.png'
p994
aS'000000111702.png'
p995
aS'000000111811.png'
p996
aS'000000111819.png'
p997
aS'000000112093.png'
p998
aS'000000112298.png'
p999
aS'000000112378.png'
p1000
aS'000000112437.png'
p1001
aS'000000112568.png'
p1002
aS'000000112581.png'
p1003
aS'000000112586.png'
p1004
aS'000000112591.png'
p1005
aS'000000112677.png'
p1006
aS'000000112818.png'
p1007
aS'000000112830.png'
p1008
aS'000000112904.png'
p1009
aS'000000113058.png'
p1010
aS'000000113097.png'
p1011
aS'000000113139.png'
p1012
aS'000000113235.png'
p1013
aS'000000113271.png'
p1014
aS'000000113408.png'
p1015
aS'000000113461.png'
p1016
aS'000000113473.png'
p1017
aS'000000113571.png'
p1018
aS'000000113589.png'
p1019
aS'000000113672.png'
p1020
aS'000000113701.png'
p1021
aS'000000113707.png'
p1022
aS'000000113736.png'
p1023
aS'000000113860.png'
p1024
aS'000000113905.png'
p1025
aS'000000114147.png'
p1026
aS'000000114152.png'
p1027
aS'000000114158.png'
p1028
aS'000000114184.png'
p1029
aS'000000114458.png'
p1030
aS'000000114481.png'
p1031
aS'000000114684.png'
p1032
aS'000000114790.png'
p1033
aS'000000114861.png'
p1034
aS'000000115721.png'
p1035
aS'000000115752.png'
p1036
aS'000000115772.png'
p1037
aS'000000115846.png'
p1038
aS'000000115866.png'
p1039
aS'000000115875.png'
p1040
aS'000000116046.png'
p1041
aS'000000116067.png'
p1042
aS'000000116182.png'
p1043
aS'000000116206.png'
p1044
aS'000000116208.png'
p1045
aS'000000116405.png'
p1046
aS'000000117112.png'
p1047
aS'000000117310.png'
p1048
aS'000000117530.png'
p1049
aS'000000117836.png'
p1050
aS'000000118065.png'
p1051
aS'000000118181.png'
p1052
aS'000000118450.png'
p1053
aS'000000118542.png'
p1054
aS'000000118911.png'
p1055
aS'000000119120.png'
p1056
aS'000000119192.png'
p1057
aS'000000119402.png'
p1058
aS'000000119414.png'
p1059
aS'000000119452.png'
p1060
aS'000000119581.png'
p1061
aS'000000119641.png'
p1062
aS'000000119939.png'
p1063
aS'000000120021.png'
p1064
aS'000000120340.png'
p1065
aS'000000120356.png'
p1066
aS'000000120411.png'
p1067
aS'000000120420.png'
p1068
aS'000000120632.png'
p1069
aS'000000120745.png'
p1070
aS'000000120776.png'
p1071
aS'000000120792.png'
p1072
aS'000000121123.png'
p1073
aS'000000121157.png'
p1074
aS'000000121442.png'
p1075
aS'000000121632.png'
p1076
aS'000000121788.png'
p1077
aS'000000121826.png'
p1078
aS'000000121904.png'
p1079
aS'000000121989.png'
p1080
aS'000000122166.png'
p1081
aS'000000122354.png'
p1082
aS'000000122467.png'
p1083
aS'000000122588.png'
p1084
aS'000000122839.png'
p1085
aS'000000122953.png'
p1086
aS'000000122982.png'
p1087
aS'000000123360.png'
p1088
aS'000000123480.png'
p1089
aS'000000123580.png'
p1090
aS'000000123622.png'
p1091
aS'000000123633.png'
p1092
aS'000000123642.png'
p1093
aS'000000123677.png'
p1094
aS'000000123867.png'
p1095
aS'000000124004.png'
p1096
aS'000000124601.png'
p1097
aS'000000124659.png'
p1098
aS'000000124712.png'
p1099
aS'000000124995.png'
p1100
aS'000000125071.png'
p1101
aS'000000125228.png'
p1102
aS'000000125617.png'
p1103
aS'000000125755.png'
p1104
aS'000000125778.png'
p1105
aS'000000125909.png'
p1106
aS'000000126107.png'
p1107
aS'000000126163.png'
p1108
aS'000000126226.png'
p1109
aS'000000126340.png'
p1110
aS'000000126631.png'
p1111
aS'000000126744.png'
p1112
aS'000000127092.png'
p1113
aS'000000127129.png'
p1114
aS'000000127141.png'
p1115
aS'000000127313.png'
p1116
aS'000000127535.png'
p1117
aS'000000127659.png'
p1118
aS'000000127668.png'
p1119
aS'000000127702.png'
p1120
aS'000000127865.png'
p1121
aS'000000128014.png'
p1122
aS'000000128059.png'
p1123
aS'000000128180.png'
p1124
aS'000000128201.png'
p1125
aS'000000128224.png'
p1126
aS'000000128515.png'
p1127
aS'000000128602.png'
p1128
aS'000000128675.png'
p1129
aS'000000128849.png'
p1130
aS'000000129062.png'
p1131
aS'000000129100.png'
p1132
aS'000000129285.png'
p1133
aS'000000129492.png'
p1134
aS'000000129502.png'
p1135
aS'000000129571.png'
p1136
aS'000000129756.png'
p1137
aS'000000129786.png'
p1138
aS'000000129832.png'
p1139
aS'000000129862.png'
p1140
aS'000000129864.png'
p1141
aS'000000129886.png'
p1142
aS'000000129897.png'
p1143
aS'000000130030.png'
p1144
aS'000000130043.png'
p1145
aS'000000130456.png'
p1146
aS'000000130524.png'
p1147
aS'000000130528.png'
p1148
aS'000000130826.png'
p1149
aS'000000131018.png'
p1150
aS'000000131063.png'
p1151
aS'000000131131.png'
p1152
aS'000000131138.png'
p1153
aS'000000131282.png'
p1154
aS'000000131416.png'
p1155
aS'000000131581.png'
p1156
aS'000000131597.png'
p1157
aS'000000131627.png'
p1158
aS'000000131714.png'
p1159
aS'000000131743.png'
p1160
aS'000000132189.png'
p1161
aS'000000132272.png'
p1162
aS'000000132362.png'
p1163
aS'000000132375.png'
p1164
aS'000000132612.png'
p1165
aS'000000133050.png'
p1166
aS'000000133146.png'
p1167
aS'000000133291.png'
p1168
aS'000000133327.png'
p1169
aS'000000133476.png'
p1170
aS'000000133515.png'
p1171
aS'000000133648.png'
p1172
aS'000000133933.png'
p1173
aS'000000133963.png'
p1174
aS'000000134016.png'
p1175
aS'000000134096.png'
p1176
aS'000000134133.png'
p1177
aS'000000134160.png'
p1178
aS'000000134223.png'
p1179
aS'000000134322.png'
p1180
aS'000000134366.png'
p1181
aS'000000134574.png'
p1182
aS'000000134657.png'
p1183
aS'000000134688.png'
p1184
aS'000000134703.png'
p1185
aS'000000134815.png'
p1186
aS'000000134856.png'
p1187
aS'000000134886.png'
p1188
aS'000000135029.png'
p1189
aS'000000135139.png'
p1190
aS'000000135155.png'
p1191
aS'000000135356.png'
p1192
aS'000000135399.png'
p1193
aS'000000135436.png'
p1194
aS'000000135561.png'
p1195
aS'000000135566.png'
p1196
aS'000000135579.png'
p1197
aS'000000135666.png'
p1198
aS'000000135748.png'
p1199
aS'000000135914.png'
p1200
aS'000000135975.png'
p1201
aS'000000135976.png'
p1202
aS'000000136008.png'
p1203
aS'000000136227.png'
p1204
aS'000000136720.png'
p1205
aS'000000136938.png'
p1206
aS'000000137118.png'
p1207
aS'000000137265.png'
p1208
aS'000000137271.png'
p1209
aS'000000137297.png'
p1210
aS'000000137412.png'
p1211
aS'000000137475.png'
p1212
aS'000000137595.png'
p1213
aS'000000137622.png'
p1214
aS'000000137809.png'
p1215
aS'000000137826.png'
p1216
aS'000000137961.png'
p1217
aS'000000138054.png'
p1218
aS'000000138382.png'
p1219
aS'000000138549.png'
p1220
aS'000000138601.png'
p1221
aS'000000138639.png'
p1222
aS'000000138704.png'
p1223
aS'000000138821.png'
p1224
aS'000000138975.png'
p1225
aS'000000139306.png'
p1226
aS'000000139428.png'
p1227
aS'000000139457.png'
p1228
aS'000000139512.png'
p1229
aS'000000139721.png'
p1230
aS'000000139740.png'
p1231
aS'000000139856.png'
p1232
aS'000000139872.png'
p1233
aS'000000140006.png'
p1234
aS'000000140017.png'
p1235
aS'000000140122.png'
p1236
aS'000000140203.png'
p1237
aS'000000140231.png'
p1238
aS'000000140487.png'
p1239
aS'000000140490.png'
p1240
aS'000000140783.png'
p1241
aS'000000140963.png'
p1242
aS'000000141108.png'
p1243
aS'000000141158.png'
p1244
aS'000000141163.png'
p1245
aS'000000141328.png'
p1246
aS'000000141779.png'
p1247
aS'000000141821.png'
p1248
aS'000000141946.png'
p1249
aS'000000142177.png'
p1250
aS'000000142240.png'
p1251
aS'000000142248.png'
p1252
aS'000000142249.png'
p1253
aS'000000142324.png'
p1254
aS'000000142454.png'
p1255
aS'000000142472.png'
p1256
aS'000000142665.png'
p1257
aS'000000142718.png'
p1258
aS'000000142742.png'
p1259
aS'000000142826.png'
p1260
aS'000000142879.png'
p1261
aS'000000142890.png'
p1262
aS'000000143224.png'
p1263
aS'000000143275.png'
p1264
aS'000000143320.png'
p1265
aS'000000143516.png'
p1266
aS'000000143526.png'
p1267
aS'000000143859.png'
p1268
aS'000000143931.png'
p1269
aS'000000144228.png'
p1270
aS'000000144373.png'
p1271
aS'000000144379.png'
p1272
aS'000000144438.png'
p1273
aS'000000144562.png'
p1274
aS'000000144706.png'
p1275
aS'000000144863.png'
p1276
aS'000000144870.png'
p1277
aS'000000144874.png'
p1278
aS'000000144878.png'
p1279
aS'000000144938.png'
p1280
aS'000000145214.png'
p1281
aS'000000145295.png'
p1282
aS'000000145318.png'
p1283
aS'000000145512.png'
p1284
aS'000000145562.png'
p1285
aS'000000145597.png'
p1286
aS'000000145746.png'
p1287
aS'000000145824.png'
p1288
aS'000000146078.png'
p1289
aS'000000146120.png'
p1290
aS'000000146127.png'
p1291
aS'000000146457.png'
p1292
aS'000000146489.png'
p1293
aS'000000146570.png'
p1294
aS'000000147042.png'
p1295
aS'000000147058.png'
p1296
aS'000000147415.png'
p1297
aS'000000147545.png'
p1298
aS'000000147546.png'
p1299
aS'000000147576.png'
p1300
aS'000000147736.png'
p1301
aS'000000147740.png'
p1302
aS'000000147904.png'
p1303
aS'000000148067.png'
p1304
aS'000000148193.png'
p1305
aS'000000148329.png'
p1306
aS'000000148392.png'
p1307
aS'000000148444.png'
p1308
aS'000000148549.png'
p1309
aS'000000148665.png'
p1310
aS'000000148719.png'
p1311
aS'000000148898.png'
p1312
aS'000000149284.png'
p1313
aS'000000149500.png'
p1314
aS'000000149676.png'
p1315
aS'000000149783.png'
p1316
aS'000000150235.png'
p1317
aS'000000150320.png'
p1318
aS'000000150358.png'
p1319
aS'000000150417.png'
p1320
aS'000000150599.png'
p1321
aS'000000150639.png'
p1322
aS'000000150686.png'
p1323
aS'000000150703.png'
p1324
aS'000000150986.png'
p1325
aS'000000151084.png'
p1326
aS'000000151141.png'
p1327
aS'000000151480.png'
p1328
aS'000000151521.png'
p1329
aS'000000151742.png'
p1330
aS'000000151988.png'
p1331
aS'000000152103.png'
p1332
aS'000000152245.png'
p1333
aS'000000152340.png'
p1334
aS'000000152499.png'
p1335
aS'000000152525.png'
p1336
aS'000000152598.png'
p1337
aS'000000152609.png'
p1338
aS'000000152751.png'
p1339
aS'000000152808.png'
p1340
aS'000000152962.png'
p1341
aS'000000153011.png'
p1342
aS'000000153040.png'
p1343
aS'000000153104.png'
p1344
aS'000000153445.png'
p1345
aS'000000153520.png'
p1346
aS'000000153632.png'
p1347
aS'000000153685.png'
p1348
aS'000000153717.png'
p1349
aS'000000153803.png'
p1350
aS'000000153847.png'
p1351
aS'000000153931.png'
p1352
aS'000000153956.png'
p1353
aS'000000154193.png'
p1354
aS'000000154202.png'
p1355
aS'000000154423.png'
p1356
aS'000000154830.png'
p1357
aS'000000154884.png'
p1358
aS'000000154931.png'
p1359
aS'000000154971.png'
p1360
aS'000000155131.png'
p1361
aS'000000155142.png'
p1362
aS'000000155341.png'
p1363
aS'000000155488.png'
p1364
aS'000000155997.png'
p1365
aS'000000156071.png'
p1366
aS'000000156100.png'
p1367
aS'000000156324.png'
p1368
aS'000000156341.png'
p1369
aS'000000156370.png'
p1370
aS'000000156497.png'
p1371
aS'000000156572.png'
p1372
aS'000000156609.png'
p1373
aS'000000156643.png'
p1374
aS'000000156687.png'
p1375
aS'000000156846.png'
p1376
aS'000000156889.png'
p1377
aS'000000156928.png'
p1378
aS'000000156974.png'
p1379
aS'000000157001.png'
p1380
aS'000000157052.png'
p1381
aS'000000157112.png'
p1382
aS'000000157155.png'
p1383
aS'000000157283.png'
p1384
aS'000000157390.png'
p1385
aS'000000157469.png'
p1386
aS'000000157516.png'
p1387
aS'000000157635.png'
p1388
aS'000000157669.png'
p1389
aS'000000157789.png'
p1390
aS'000000157866.png'
p1391
aS'000000157876.png'
p1392
aS'000000157928.png'
p1393
aS'000000157960.png'
p1394
aS'000000158292.png'
p1395
aS'000000158333.png'
p1396
aS'000000158344.png'
p1397
aS'000000158849.png'
p1398
aS'000000158922.png'
p1399
aS'000000159223.png'
p1400
aS'000000159240.png'
p1401
aS'000000159399.png'
p1402
aS'000000159458.png'
p1403
aS'000000159609.png'
p1404
aS'000000159627.png'
p1405
aS'000000159667.png'
p1406
aS'000000160057.png'
p1407
aS'000000160195.png'
p1408
aS'000000160330.png'
p1409
aS'000000160341.png'
p1410
aS'000000160531.png'
p1411
aS'000000160811.png'
p1412
aS'000000160836.png'
p1413
aS'000000160860.png'
p1414
aS'000000161010.png'
p1415
aS'000000161047.png'
p1416
aS'000000161231.png'
p1417
aS'000000161609.png'
p1418
aS'000000161720.png'
p1419
aS'000000161772.png'
p1420
aS'000000161807.png'
p1421
aS'000000161940.png'
p1422
aS'000000162249.png'
p1423
aS'000000162454.png'
p1424
aS'000000162579.png'
p1425
aS'000000162627.png'
p1426
aS'000000162952.png'
p1427
aS'000000162998.png'
p1428
aS'000000163057.png'
p1429
aS'000000163112.png'
p1430
aS'000000163518.png'
p1431
aS'000000163589.png'
p1432
aS'000000163611.png'
p1433
aS'000000163710.png'
p1434
aS'000000163831.png'
p1435
aS'000000164005.png'
p1436
aS'000000164104.png'
p1437
aS'000000164121.png'
p1438
aS'000000164330.png'
p1439
aS'000000164548.png'
p1440
aS'000000164555.png'
p1441
aS'000000164602.png'
p1442
aS'000000164635.png'
p1443
aS'000000164780.png'
p1444
aS'000000165055.png'
p1445
aS'000000165056.png'
p1446
aS'000000165298.png'
p1447
aS'000000165522.png'
p1448
aS'000000165589.png'
p1449
aS'000000165643.png'
p1450
aS'000000165686.png'
p1451
aS'000000165831.png'
p1452
aS'000000166003.png'
p1453
aS'000000166060.png'
p1454
aS'000000166244.png'
p1455
aS'000000166287.png'
p1456
aS'000000166320.png'
p1457
aS'000000166358.png'
p1458
aS'000000166565.png'
p1459
aS'000000166948.png'
p1460
aS'000000167122.png'
p1461
aS'000000167347.png'
p1462
aS'000000167443.png'
p1463
aS'000000167477.png'
p1464
aS'000000167486.png'
p1465
aS'000000167696.png'
p1466
aS'000000167724.png'
p1467
aS'000000167854.png'
p1468
aS'000000167898.png'
p1469
aS'000000167906.png'
p1470
aS'000000167952.png'
p1471
aS'000000168031.png'
p1472
aS'000000168337.png'
p1473
aS'000000168583.png'
p1474
aS'000000168662.png'
p1475
aS'000000168686.png'
p1476
aS'000000168713.png'
p1477
aS'000000168781.png'
p1478
aS'000000168890.png'
p1479
aS'000000168909.png'
p1480
aS'000000169045.png'
p1481
aS'000000169111.png'
p1482
aS'000000169169.png'
p1483
aS'000000169250.png'
p1484
aS'000000169331.png'
p1485
aS'000000169438.png'
p1486
aS'000000169562.png'
p1487
aS'000000169996.png'
p1488
aS'000000170178.png'
p1489
aS'000000170340.png'
p1490
aS'000000170393.png'
p1491
aS'000000170401.png'
p1492
aS'000000170436.png'
p1493
aS'000000170442.png'
p1494
aS'000000170640.png'
p1495
aS'000000170700.png'
p1496
aS'000000170784.png'
p1497
aS'000000170974.png'
p1498
aS'000000171190.png'
p1499
aS'000000171192.png'
p1500
aS'000000171201.png'
p1501
aS'000000171241.png'
p1502
aS'000000171255.png'
p1503
aS'000000171310.png'
p1504
aS'000000171360.png'
p1505
aS'000000171464.png'
p1506
aS'000000171548.png'
p1507
aS'000000171678.png'
p1508
aS'000000171740.png'
p1509
aS'000000171753.png'
p1510
aS'000000171757.png'
p1511
aS'000000171809.png'
p1512
aS'000000171962.png'
p1513
aS'000000172021.png'
p1514
aS'000000172057.png'
p1515
aS'000000172556.png'
p1516
aS'000000172599.png'
p1517
aS'000000172648.png'
p1518
aS'000000172686.png'
p1519
aS'000000172877.png'
p1520
aS'000000172995.png'
p1521
aS'000000173004.png'
p1522
aS'000000173008.png'
p1523
aS'000000173080.png'
p1524
aS'000000173514.png'
p1525
aS'000000173598.png'
p1526
aS'000000173693.png'
p1527
aS'000000173825.png'
p1528
aS'000000173997.png'
p1529
aS'000000174070.png'
p1530
aS'000000174113.png'
p1531
aS'000000174206.png'
p1532
aS'000000174425.png'
p1533
aS'000000174511.png'
p1534
aS'000000174690.png'
p1535
aS'000000174721.png'
p1536
aS'000000174888.png'
p1537
aS'000000175102.png'
p1538
aS'000000175310.png'
p1539
aS'000000175437.png'
p1540
aS'000000175597.png'
p1541
aS'000000175653.png'
p1542
aS'000000175878.png'
p1543
aS'000000175908.png'
p1544
aS'000000175954.png'
p1545
aS'000000176017.png'
p1546
aS'000000176031.png'
p1547
aS'000000176120.png'
p1548
aS'000000176180.png'
p1549
aS'000000176226.png'
p1550
aS'000000176278.png'
p1551
aS'000000176328.png'
p1552
aS'000000176330.png'
p1553
aS'000000176606.png'
p1554
aS'000000177015.png'
p1555
aS'000000177149.png'
p1556
aS'000000177262.png'
p1557
aS'000000177323.png'
p1558
aS'000000177366.png'
p1559
aS'000000177375.png'
p1560
aS'000000177468.png'
p1561
aS'000000177496.png'
p1562
aS'000000177934.png'
p1563
aS'000000178331.png'
p1564
aS'000000178413.png'
p1565
aS'000000178446.png'
p1566
aS'000000178516.png'
p1567
aS'000000178606.png'
p1568
aS'000000178690.png'
p1569
aS'000000178691.png'
p1570
aS'000000178748.png'
p1571
aS'000000178795.png'
p1572
aS'000000178941.png'
p1573
aS'000000178980.png'
p1574
aS'000000179141.png'
p1575
aS'000000179322.png'
p1576
aS'000000179415.png'
p1577
aS'000000179441.png'
p1578
aS'000000179699.png'
p1579
aS'000000179727.png'
p1580
aS'000000179898.png'
p1581
aS'000000179926.png'
p1582
aS'000000180013.png'
p1583
aS'000000180045.png'
p1584
aS'000000180101.png'
p1585
aS'000000180362.png'
p1586
aS'000000180366.png'
p1587
aS'000000180383.png'
p1588
aS'000000180521.png'
p1589
aS'000000180584.png'
p1590
aS'000000180653.png'
p1591
aS'000000180662.png'
p1592
aS'000000180751.png'
p1593
aS'000000180764.png'
p1594
aS'000000180787.png'
p1595
aS'000000181030.png'
p1596
aS'000000181118.png'
p1597
aS'000000181139.png'
p1598
aS'000000181179.png'
p1599
aS'000000181446.png'
p1600
aS'000000181449.png'
p1601
aS'000000181627.png'
p1602
aS'000000181655.png'
p1603
aS'000000181816.png'
p1604
aS'000000181888.png'
p1605
aS'000000182233.png'
p1606
aS'000000182236.png'
p1607
aS'000000182362.png'
p1608
aS'000000182417.png'
p1609
aS'000000182523.png'
p1610
aS'000000182784.png'
p1611
aS'000000182834.png'
p1612
aS'000000183166.png'
p1613
aS'000000183204.png'
p1614
aS'000000183319.png'
p1615
aS'000000183364.png'
p1616
aS'000000183379.png'
p1617
aS'000000183519.png'
p1618
aS'000000183620.png'
p1619
aS'000000183905.png'
p1620
aS'000000183965.png'
p1621
aS'000000183991.png'
p1622
aS'000000184139.png'
p1623
aS'000000184313.png'
p1624
aS'000000184384.png'
p1625
aS'000000184485.png'
p1626
aS'000000184611.png'
p1627
aS'000000184621.png'
p1628
aS'000000184773.png'
p1629
aS'000000184830.png'
p1630
aS'000000184945.png'
p1631
aS'000000184994.png'
p1632
aS'000000185276.png'
p1633
aS'000000185373.png'
p1634
aS'000000185444.png'
p1635
aS'000000185464.png'
p1636
aS'000000185472.png'
p1637
aS'000000185614.png'
p1638
aS'000000185781.png'
p1639
aS'000000185807.png'
p1640
aS'000000185935.png'
p1641
aS'000000185936.png'
p1642
aS'000000186013.png'
p1643
aS'000000186036.png'
p1644
aS'000000186095.png'
p1645
aS'000000186130.png'
p1646
aS'000000186165.png'
p1647
aS'000000186412.png'
p1648
aS'000000186497.png'
p1649
aS'000000186697.png'
p1650
aS'000000186927.png'
p1651
aS'000000187054.png'
p1652
aS'000000187072.png'
p1653
aS'000000187144.png'
p1654
aS'000000187177.png'
p1655
aS'000000187236.png'
p1656
aS'000000187240.png'
p1657
aS'000000187249.png'
p1658
aS'000000187349.png'
p1659
aS'000000187424.png'
p1660
aS'000000187543.png'
p1661
aS'000000187722.png'
p1662
aS'000000187734.png'
p1663
aS'000000188040.png'
p1664
aS'000000188136.png'
p1665
aS'000000188146.png'
p1666
aS'000000188311.png'
p1667
aS'000000188434.png'
p1668
aS'000000188460.png'
p1669
aS'000000188674.png'
p1670
aS'000000188817.png'
p1671
aS'000000188824.png'
p1672
aS'000000188865.png'
p1673
aS'000000188873.png'
p1674
aS'000000188958.png'
p1675
aS'000000189241.png'
p1676
aS'000000189244.png'
p1677
aS'000000189368.png'
p1678
aS'000000189376.png'
p1679
aS'000000189588.png'
p1680
aS'000000189694.png'
p1681
aS'000000189752.png'
p1682
aS'000000189775.png'
p1683
aS'000000190185.png'
p1684
aS'000000190218.png'
p1685
aS'000000190291.png'
p1686
aS'000000190463.png'
p1687
aS'000000190829.png'
p1688
aS'000000191054.png'
p1689
aS'000000191095.png'
p1690
aS'000000191218.png'
p1691
aS'000000191225.png'
p1692
aS'000000191265.png'
p1693
aS'000000191301.png'
p1694
aS'000000191314.png'
p1695
aS'000000191515.png'
p1696
aS'000000191691.png'
p1697
aS'000000191846.png'
p1698
aS'000000191874.png'
p1699
aS'000000191925.png'
p1700
aS'000000191949.png'
p1701
aS'000000192007.png'
p1702
aS'000000192128.png'
p1703
aS'000000192154.png'
p1704
aS'000000192212.png'
p1705
aS'000000192296.png'
p1706
aS'000000192554.png'
p1707
aS'000000192660.png'
p1708
aS'000000192714.png'
p1709
aS'000000192932.png'
p1710
aS'000000193122.png'
p1711
aS'000000193194.png'
p1712
aS'000000193380.png'
p1713
aS'000000193498.png'
p1714
aS'000000193673.png'
p1715
aS'000000193674.png'
p1716
aS'000000193875.png'
p1717
aS'000000194203.png'
p1718
aS'000000194208.png'
p1719
aS'000000194331.png'
p1720
aS'000000194414.png'
p1721
aS'000000194532.png'
p1722
aS'000000194724.png'
p1723
aS'000000194756.png'
p1724
aS'000000194790.png'
p1725
aS'000000195211.png'
p1726
aS'000000195538.png'
p1727
aS'000000195561.png'
p1728
aS'000000195800.png'
p1729
aS'000000195815.png'
p1730
aS'000000195817.png'
p1731
aS'000000195842.png'
p1732
aS'000000196074.png'
p1733
aS'000000196210.png'
p1734
aS'000000196430.png'
p1735
aS'000000196462.png'
p1736
aS'000000196664.png'
p1737
aS'000000196715.png'
p1738
aS'000000196759.png'
p1739
aS'000000196789.png'
p1740
aS'000000196815.png'
p1741
aS'000000196843.png'
p1742
aS'000000196885.png'
p1743
aS'000000196924.png'
p1744
aS'000000197097.png'
p1745
aS'000000197130.png'
p1746
aS'000000197444.png'
p1747
aS'000000197609.png'
p1748
aS'000000197775.png'
p1749
aS'000000197809.png'
p1750
aS'000000197840.png'
p1751
aS'000000197997.png'
p1752
aS'000000198004.png'
p1753
aS'000000198079.png'
p1754
aS'000000198223.png'
p1755
aS'000000198312.png'
p1756
aS'000000198447.png'
p1757
aS'000000198477.png'
p1758
aS'000000198486.png'
p1759
aS'000000198492.png'
p1760
aS'000000198530.png'
p1761
aS'000000198563.png'
p1762
aS'000000198590.png'
p1763
aS'000000198775.png'
p1764
aS'000000198799.png'
p1765
aS'000000199127.png'
p1766
aS'000000199158.png'
p1767
aS'000000199437.png'
p1768
aS'000000199449.png'
p1769
aS'000000199575.png'
p1770
aS'000000199681.png'
p1771
aS'000000199783.png'
p1772
aS'000000199842.png'
p1773
aS'000000199951.png'
p1774
aS'000000199969.png'
p1775
aS'000000199989.png'
p1776
aS'000000200250.png'
p1777
aS'000000200291.png'
p1778
aS'000000200365.png'
p1779
aS'000000200381.png'
p1780
aS'000000200421.png'
p1781
aS'000000200451.png'
p1782
aS'000000200541.png'
p1783
aS'000000200605.png'
p1784
aS'000000200627.png'
p1785
aS'000000200643.png'
p1786
aS'000000200839.png'
p1787
aS'000000201463.png'
p1788
aS'000000201727.png'
p1789
aS'000000201925.png'
p1790
aS'000000202178.png'
p1791
aS'000000202582.png'
p1792
aS'000000202963.png'
p1793
aS'000000202981.png'
p1794
aS'000000202998.png'
p1795
aS'000000203003.png'
p1796
aS'000000203095.png'
p1797
aS'000000203294.png'
p1798
aS'000000203389.png'
p1799
aS'000000203636.png'
p1800
aS'000000203661.png'
p1801
aS'000000203754.png'
p1802
aS'000000203865.png'
p1803
aS'000000203965.png'
p1804
aS'000000204036.png'
p1805
aS'000000204051.png'
p1806
aS'000000204137.png'
p1807
aS'000000204432.png'
p1808
aS'000000204448.png'
p1809
aS'000000204471.png'
p1810
aS'000000204507.png'
p1811
aS'000000204650.png'
p1812
aS'000000204887.png'
p1813
aS'000000205089.png'
p1814
aS'000000205108.png'
p1815
aS'000000205232.png'
p1816
aS'000000205251.png'
p1817
aS'000000205344.png'
p1818
aS'000000205435.png'
p1819
aS'000000205570.png'
p1820
aS'000000205573.png'
p1821
aS'000000205636.png'
p1822
aS'000000205729.png'
p1823
aS'000000206027.png'
p1824
aS'000000206049.png'
p1825
aS'000000206273.png'
p1826
aS'000000206417.png'
p1827
aS'000000206487.png'
p1828
aS'000000206579.png'
p1829
aS'000000206701.png'
p1830
aS'000000206751.png'
p1831
aS'000000206784.png'
p1832
aS'000000206922.png'
p1833
aS'000000207059.png'
p1834
aS'000000207151.png'
p1835
aS'000000207205.png'
p1836
aS'000000207611.png'
p1837
aS'000000207826.png'
p1838
aS'000000207844.png'
p1839
aS'000000207853.png'
p1840
aS'000000207860.png'
p1841
aS'000000207886.png'
p1842
aS'000000207898.png'
p1843
aS'000000207925.png'
p1844
aS'000000207926.png'
p1845
aS'000000208054.png'
p1846
aS'000000208340.png'
p1847
aS'000000208363.png'
p1848
aS'000000208423.png'
p1849
aS'000000208516.png'
p1850
aS'000000208649.png'
p1851
aS'000000208688.png'
p1852
aS'000000208793.png'
p1853
aS'000000208955.png'
p1854
aS'000000208991.png'
p1855
aS'000000209044.png'
p1856
aS'000000209071.png'
p1857
aS'000000209357.png'
p1858
aS'000000209468.png'
p1859
aS'000000209480.png'
p1860
aS'000000209570.png'
p1861
aS'000000209898.png'
p1862
aS'000000209904.png'
p1863
aS'000000209989.png'
p1864
aS'000000209995.png'
p1865
aS'000000210012.png'
p1866
aS'000000210050.png'
p1867
aS'000000210081.png'
p1868
aS'000000210204.png'
p1869
aS'000000210372.png'
p1870
aS'000000210394.png'
p1871
aS'000000210522.png'
p1872
aS'000000210736.png'
p1873
aS'000000210782.png'
p1874
aS'000000210795.png'
p1875
aS'000000210846.png'
p1876
aS'000000210857.png'
p1877
aS'000000210980.png'
p1878
aS'000000210982.png'
p1879
aS'000000210990.png'
p1880
aS'000000211177.png'
p1881
aS'000000211186.png'
p1882
aS'000000211425.png'
p1883
aS'000000211476.png'
p1884
aS'000000211825.png'
p1885
aS'000000212363.png'
p1886
aS'000000212587.png'
p1887
aS'000000212939.png'
p1888
aS'000000213091.png'
p1889
aS'000000213453.png'
p1890
aS'000000213693.png'
p1891
aS'000000213728.png'
p1892
aS'000000213843.png'
p1893
aS'000000214124.png'
p1894
aS'000000214349.png'
p1895
aS'000000214471.png'
p1896
aS'000000214491.png'
p1897
aS'000000214604.png'
p1898
aS'000000214648.png'
p1899
aS'000000214692.png'
p1900
aS'000000214727.png'
p1901
aS'000000214919.png'
p1902
aS'000000214984.png'
p1903
aS'000000215062.png'
p1904
aS'000000215439.png'
p1905
aS'000000215482.png'
p1906
aS'000000215644.png'
p1907
aS'000000215723.png'
p1908
aS'000000215808.png'
p1909
aS'000000215845.png'
p1910
aS'000000215982.png'
p1911
aS'000000216103.png'
p1912
aS'000000216161.png'
p1913
aS'000000216277.png'
p1914
aS'000000216449.png'
p1915
aS'000000216497.png'
p1916
aS'000000216726.png'
p1917
aS'000000216761.png'
p1918
aS'000000216790.png'
p1919
aS'000000217016.png'
p1920
aS'000000217156.png'
p1921
aS'000000217181.png'
p1922
aS'000000217397.png'
p1923
aS'000000217546.png'
p1924
aS'000000217783.png'
p1925
aS'000000217937.png'
p1926
aS'000000218205.png'
p1927
aS'000000218290.png'
p1928
aS'000000218343.png'
p1929
aS'000000218397.png'
p1930
aS'000000218494.png'
p1931
aS'000000218703.png'
p1932
aS'000000218855.png'
p1933
aS'000000218891.png'
p1934
aS'000000218988.png'
p1935
aS'000000218996.png'
p1936
aS'000000219063.png'
p1937
aS'000000219075.png'
p1938
aS'000000219135.png'
p1939
aS'000000219261.png'
p1940
aS'000000219546.png'
p1941
aS'000000219771.png'
p1942
aS'000000219909.png'
p1943
aS'000000219928.png'
p1944
aS'000000220607.png'
p1945
aS'000000220732.png'
p1946
aS'000000220808.png'
p1947
aS'000000221000.png'
p1948
aS'000000221095.png'
p1949
aS'000000221303.png'
p1950
aS'000000221547.png'
p1951
aS'000000221562.png'
p1952
aS'000000221605.png'
p1953
aS'000000221609.png'
p1954
aS'000000221846.png'
p1955
aS'000000221893.png'
p1956
aS'000000221932.png'
p1957
aS'000000222146.png'
p1958
aS'000000222228.png'
p1959
aS'000000222317.png'
p1960
aS'000000222512.png'
p1961
aS'000000222564.png'
p1962
aS'000000222662.png'
p1963
aS'000000222681.png'
p1964
aS'000000222828.png'
p1965
aS'000000222842.png'
p1966
aS'000000222903.png'
p1967
aS'000000223414.png'
p1968
aS'000000223757.png'
p1969
aS'000000223777.png'
p1970
aS'000000223833.png'
p1971
aS'000000224010.png'
p1972
aS'000000224104.png'
p1973
aS'000000224111.png'
p1974
aS'000000224114.png'
p1975
aS'000000224126.png'
p1976
aS'000000224289.png'
p1977
aS'000000224530.png'
p1978
aS'000000224542.png'
p1979
aS'000000224554.png'
p1980
aS'000000224557.png'
p1981
aS'000000224991.png'
p1982
aS'000000225281.png'
p1983
aS'000000225558.png'
p1984
aS'000000225603.png'
p1985
aS'000000225609.png'
p1986
aS'000000225730.png'
p1987
aS'000000225913.png'
p1988
aS'000000226119.png'
p1989
aS'000000226171.png'
p1990
aS'000000226220.png'
p1991
aS'000000226256.png'
p1992
aS'000000226496.png'
p1993
aS'000000226903.png'
p1994
aS'000000227031.png'
p1995
aS'000000227044.png'
p1996
aS'000000227204.png'
p1997
aS'000000227220.png'
p1998
aS'000000227226.png'
p1999
aS'000000227428.png'
p2000
aS'000000227440.png'
p2001
aS'000000227468.png'
p2002
aS'000000227478.png'
p2003
aS'000000227491.png'
p2004
aS'000000227851.png'
p2005
aS'000000227940.png'
p2006
aS'000000227958.png'
p2007
aS'000000227985.png'
p2008
aS'000000228011.png'
p2009
aS'000000228013.png'
p2010
aS'000000228306.png'
p2011
aS'000000228309.png'
p2012
aS'000000228350.png'
p2013
aS'000000228635.png'
p2014
aS'000000228749.png'
p2015
aS'000000229132.png'
p2016
aS'000000229342.png'
p2017
aS'000000229391.png'
p2018
aS'000000229643.png'
p2019
aS'000000229647.png'
p2020
aS'000000229659.png'
p2021
aS'000000229740.png'
p2022
aS'000000229889.png'
p2023
aS'000000230040.png'
p2024
aS'000000230096.png'
p2025
aS'000000230240.png'
p2026
aS'000000230450.png'
p2027
aS'000000230468.png'
p2028
aS'000000230585.png'
p2029
aS'000000230615.png'
p2030
aS'000000230679.png'
p2031
aS'000000230915.png'
p2032
aS'000000230964.png'
p2033
aS'000000231028.png'
p2034
aS'000000231093.png'
p2035
aS'000000231097.png'
p2036
aS'000000231281.png'
p2037
aS'000000231343.png'
p2038
aS'000000231408.png'
p2039
aS'000000231549.png'
p2040
aS'000000231580.png'
p2041
aS'000000231616.png'
p2042
aS'000000231768.png'
p2043
aS'000000232088.png'
p2044
aS'000000232121.png'
p2045
aS'000000232185.png'
p2046
aS'000000232287.png'
p2047
aS'000000232432.png'
p2048
aS'000000232538.png'
p2049
aS'000000232627.png'
p2050
aS'000000232760.png'
p2051
aS'000000232849.png'
p2052
aS'000000232900.png'
p2053
aS'000000232950.png'
p2054
aS'000000233005.png'
p2055
aS'000000233033.png'
p2056
aS'000000233140.png'
p2057
aS'000000233236.png'
p2058
aS'000000233266.png'
p2059
aS'000000233365.png'
p2060
aS'000000233491.png'
p2061
aS'000000233825.png'
p2062
aS'000000233868.png'
p2063
aS'000000234238.png'
p2064
aS'000000234328.png'
p2065
aS'000000234341.png'
p2066
aS'000000234347.png'
p2067
aS'000000234595.png'
p2068
aS'000000234633.png'
p2069
aS'000000234889.png'
p2070
aS'000000234910.png'
p2071
aS'000000234914.png'
p2072
aS'000000234938.png'
p2073
aS'000000234963.png'
p2074
aS'000000235093.png'
p2075
aS'000000235203.png'
p2076
aS'000000235595.png'
p2077
aS'000000235672.png'
p2078
aS'000000235787.png'
p2079
aS'000000235832.png'
p2080
aS'000000235964.png'
p2081
aS'000000236148.png'
p2082
aS'000000236234.png'
p2083
aS'000000236338.png'
p2084
aS'000000236370.png'
p2085
aS'000000236671.png'
p2086
aS'000000236721.png'
p2087
aS'000000236925.png'
p2088
aS'000000236945.png'
p2089
aS'000000237075.png'
p2090
aS'000000237420.png'
p2091
aS'000000237759.png'
p2092
aS'000000238029.png'
p2093
aS'000000238125.png'
p2094
aS'000000238355.png'
p2095
aS'000000238410.png'
p2096
aS'000000238498.png'
p2097
aS'000000238691.png'
p2098
aS'000000238708.png'
p2099
aS'000000239010.png'
p2100
aS'000000239029.png'
p2101
aS'000000239347.png'
p2102
aS'000000239387.png'
p2103
aS'000000239395.png'
p2104
aS'000000239444.png'
p2105
aS'000000239492.png'
p2106
aS'000000239625.png'
p2107
aS'000000239837.png'
p2108
aS'000000240111.png'
p2109
aS'000000240119.png'
p2110
aS'000000240173.png'
p2111
aS'000000240175.png'
p2112
aS'000000240210.png'
p2113
aS'000000240379.png'
p2114
aS'000000240495.png'
p2115
aS'000000240501.png'
p2116
aS'000000240783.png'
p2117
aS'000000240784.png'
p2118
aS'000000240798.png'
p2119
aS'000000240811.png'
p2120
aS'000000240903.png'
p2121
aS'000000241113.png'
p2122
aS'000000241396.png'
p2123
aS'000000241466.png'
p2124
aS'000000241503.png'
p2125
aS'000000241525.png'
p2126
aS'000000241832.png'
p2127
aS'000000241837.png'
p2128
aS'000000242297.png'
p2129
aS'000000242422.png'
p2130
aS'000000242529.png'
p2131
aS'000000242543.png'
p2132
aS'000000242570.png'
p2133
aS'000000242610.png'
p2134
aS'000000242673.png'
p2135
aS'000000242679.png'
p2136
aS'000000242734.png'
p2137
aS'000000242779.png'
p2138
aS'000000242855.png'
p2139
aS'000000242946.png'
p2140
aS'000000242968.png'
p2141
aS'000000243158.png'
p2142
aS'000000243418.png'
p2143
aS'000000243773.png'
p2144
aS'000000243777.png'
p2145
aS'000000243780.png'
p2146
aS'000000243891.png'
p2147
aS'000000243896.png'
p2148
aS'000000243946.png'
p2149
aS'000000244050.png'
p2150
aS'000000244060.png'
p2151
aS'000000244159.png'
p2152
aS'000000244181.png'
p2153
aS'000000244665.png'
p2154
aS'000000244949.png'
p2155
aS'000000245242.png'
p2156
aS'000000245315.png'
p2157
aS'000000245432.png'
p2158
aS'000000245448.png'
p2159
aS'000000245460.png'
p2160
aS'000000245642.png'
p2161
aS'000000245664.png'
p2162
aS'000000245997.png'
p2163
aS'000000246001.png'
p2164
aS'000000246004.png'
p2165
aS'000000246069.png'
p2166
aS'000000246248.png'
p2167
aS'000000246263.png'
p2168
aS'000000246270.png'
p2169
aS'000000246327.png'
p2170
aS'000000246999.png'
p2171
aS'000000247130.png'
p2172
aS'000000247259.png'
p2173
aS'000000247264.png'
p2174
aS'000000247407.png'
p2175
aS'000000247477.png'
p2176
aS'000000247484.png'
p2177
aS'000000247720.png'
p2178
aS'000000247839.png'
p2179
aS'000000248014.png'
p2180
aS'000000248129.png'
p2181
aS'000000248142.png'
p2182
aS'000000248163.png'
p2183
aS'000000248235.png'
p2184
aS'000000248314.png'
p2185
aS'000000248457.png'
p2186
aS'000000248469.png'
p2187
aS'000000248559.png'
p2188
aS'000000248582.png'
p2189
aS'000000249131.png'
p2190
aS'000000249184.png'
p2191
aS'000000249599.png'
p2192
aS'000000249969.png'
p2193
aS'000000250164.png'
p2194
aS'000000250592.png'
p2195
aS'000000250893.png'
p2196
aS'000000250951.png'
p2197
aS'000000250953.png'
p2198
aS'000000251195.png'
p2199
aS'000000251242.png'
p2200
aS'000000251395.png'
p2201
aS'000000251531.png'
p2202
aS'000000251639.png'
p2203
aS'000000251741.png'
p2204
aS'000000251752.png'
p2205
aS'000000251798.png'
p2206
aS'000000251892.png'
p2207
aS'000000251920.png'
p2208
aS'000000252147.png'
p2209
aS'000000252354.png'
p2210
aS'000000252388.png'
p2211
aS'000000252748.png'
p2212
aS'000000252927.png'
p2213
aS'000000253408.png'
p2214
aS'000000253432.png'
p2215
aS'000000253630.png'
p2216
aS'000000253665.png'
p2217
aS'000000253742.png'
p2218
aS'000000253770.png'
p2219
aS'000000253835.png'
p2220
aS'000000253964.png'
p2221
aS'000000254745.png'
p2222
aS'000000254789.png'
p2223
aS'000000254814.png'
p2224
aS'000000254994.png'
p2225
aS'000000255096.png'
p2226
aS'000000255165.png'
p2227
aS'000000255274.png'
p2228
aS'000000255966.png'
p2229
aS'000000256180.png'
p2230
aS'000000256192.png'
p2231
aS'000000256251.png'
p2232
aS'000000256309.png'
p2233
aS'000000256343.png'
p2234
aS'000000256628.png'
p2235
aS'000000256713.png'
p2236
aS'000000256769.png'
p2237
aS'000000256787.png'
p2238
aS'000000256838.png'
p2239
aS'000000256916.png'
p2240
aS'000000256973.png'
p2241
aS'000000256983.png'
p2242
aS'000000257058.png'
p2243
aS'000000257060.png'
p2244
aS'000000257136.png'
p2245
aS'000000257215.png'
p2246
aS'000000257336.png'
p2247
aS'000000257370.png'
p2248
aS'000000257566.png'
p2249
aS'000000257629.png'
p2250
aS'000000257971.png'
p2251
aS'000000258112.png'
p2252
aS'000000258243.png'
p2253
aS'000000258516.png'
p2254
aS'000000258661.png'
p2255
aS'000000258850.png'
p2256
aS'000000258905.png'
p2257
aS'000000258996.png'
p2258
aS'000000259049.png'
p2259
aS'000000259422.png'
p2260
aS'000000259465.png'
p2261
aS'000000259690.png'
p2262
aS'000000259793.png'
p2263
aS'000000259814.png'
p2264
aS'000000260105.png'
p2265
aS'000000260275.png'
p2266
aS'000000260478.png'
p2267
aS'000000260486.png'
p2268
aS'000000260618.png'
p2269
aS'000000260695.png'
p2270
aS'000000260774.png'
p2271
aS'000000260925.png'
p2272
aS'000000261426.png'
p2273
aS'000000261453.png'
p2274
aS'000000261558.png'
p2275
aS'000000261721.png'
p2276
aS'000000261805.png'
p2277
aS'000000262030.png'
p2278
aS'000000262162.png'
p2279
aS'000000262274.png'
p2280
aS'000000262323.png'
p2281
aS'000000262371.png'
p2282
aS'000000262394.png'
p2283
aS'000000262404.png'
p2284
aS'000000262425.png'
p2285
aS'000000262476.png'
p2286
aS'000000262487.png'
p2287
aS'000000262509.png'
p2288
aS'000000262514.png'
p2289
aS'000000262576.png'
p2290
aS'000000262587.png'
p2291
aS'000000262608.png'
p2292
aS'000000262609.png'
p2293
aS'000000262617.png'
p2294
aS'000000262658.png'
p2295
aS'000000262938.png'
p2296
aS'000000262940.png'
p2297
aS'000000263052.png'
p2298
aS'000000263323.png'
p2299
aS'000000263351.png'
p2300
aS'000000263359.png'
p2301
aS'000000263412.png'
p2302
aS'000000263664.png'
p2303
aS'000000263700.png'
p2304
aS'000000263834.png'
p2305
aS'000000264110.png'
p2306
aS'000000264238.png'
p2307
aS'000000264385.png'
p2308
aS'000000264599.png'
p2309
aS'000000264619.png'
p2310
aS'000000264659.png'
p2311
aS'000000264660.png'
p2312
aS'000000264976.png'
p2313
aS'000000264992.png'
p2314
aS'000000265176.png'
p2315
aS'000000265200.png'
p2316
aS'000000265227.png'
p2317
aS'000000265256.png'
p2318
aS'000000265552.png'
p2319
aS'000000265611.png'
p2320
aS'000000265719.png'
p2321
aS'000000265743.png'
p2322
aS'000000265879.png'
p2323
aS'000000265915.png'
p2324
aS'000000265971.png'
p2325
aS'000000266099.png'
p2326
aS'000000266434.png'
p2327
aS'000000266487.png'
p2328
aS'000000266601.png'
p2329
aS'000000266627.png'
p2330
aS'000000266951.png'
p2331
aS'000000267127.png'
p2332
aS'000000267135.png'
p2333
aS'000000267224.png'
p2334
aS'000000267300.png'
p2335
aS'000000267363.png'
p2336
aS'000000267408.png'
p2337
aS'000000267521.png'
p2338
aS'000000267684.png'
p2339
aS'000000267694.png'
p2340
aS'000000267910.png'
p2341
aS'000000267932.png'
p2342
aS'000000268044.png'
p2343
aS'000000268215.png'
p2344
aS'000000268224.png'
p2345
aS'000000268233.png'
p2346
aS'000000268254.png'
p2347
aS'000000268363.png'
p2348
aS'000000268412.png'
p2349
aS'000000268435.png'
p2350
aS'000000268478.png'
p2351
aS'000000268729.png'
p2352
aS'000000268992.png'
p2353
aS'000000269017.png'
p2354
aS'000000269037.png'
p2355
aS'000000269099.png'
p2356
aS'000000269287.png'
p2357
aS'000000269358.png'
p2358
aS'000000270066.png'
p2359
aS'000000270096.png'
p2360
aS'000000270274.png'
p2361
aS'000000270570.png'
p2362
aS'000000270706.png'
p2363
aS'000000270744.png'
p2364
aS'000000271068.png'
p2365
aS'000000271424.png'
p2366
aS'000000271620.png'
p2367
aS'000000271643.png'
p2368
aS'000000271712.png'
p2369
aS'000000271795.png'
p2370
aS'000000272153.png'
p2371
aS'000000272678.png'
p2372
aS'000000272713.png'
p2373
aS'000000273442.png'
p2374
aS'000000273470.png'
p2375
aS'000000273579.png'
p2376
aS'000000273645.png'
p2377
aS'000000273698.png'
p2378
aS'000000273711.png'
p2379
aS'000000273855.png'
p2380
aS'000000273930.png'
p2381
aS'000000274083.png'
p2382
aS'000000274084.png'
p2383
aS'000000274109.png'
p2384
aS'000000274134.png'
p2385
aS'000000274216.png'
p2386
aS'000000274272.png'
p2387
aS'000000274449.png'
p2388
aS'000000274612.png'
p2389
aS'000000274671.png'
p2390
aS'000000274687.png'
p2391
aS'000000274800.png'
p2392
aS'000000274939.png'
p2393
aS'000000275117.png'
p2394
aS'000000275175.png'
p2395
aS'000000275197.png'
p2396
aS'000000275198.png'
p2397
aS'000000275449.png'
p2398
aS'000000275585.png'
p2399
aS'000000275611.png'
p2400
aS'000000275661.png'
p2401
aS'000000275695.png'
p2402
aS'000000276024.png'
p2403
aS'000000276254.png'
p2404
aS'000000276413.png'
p2405
aS'000000276840.png'
p2406
aS'000000276893.png'
p2407
aS'000000276971.png'
p2408
aS'000000276986.png'
p2409
aS'000000277089.png'
p2410
aS'000000277094.png'
p2411
aS'000000277239.png'
p2412
aS'000000277289.png'
p2413
aS'000000277326.png'
p2414
aS'000000277642.png'
p2415
aS'000000277793.png'
p2416
aS'000000277831.png'
p2417
aS'000000277865.png'
p2418
aS'000000277869.png'
p2419
aS'000000277984.png'
p2420
aS'000000277991.png'
p2421
aS'000000278134.png'
p2422
aS'000000278161.png'
p2423
aS'000000278172.png'
p2424
aS'000000278222.png'
p2425
aS'000000278226.png'
p2426
aS'000000278365.png'
p2427
aS'000000278401.png'
p2428
aS'000000278449.png'
p2429
aS'000000278463.png'
p2430
aS'000000278705.png'
p2431
aS'000000278771.png'
p2432
aS'000000278822.png'
p2433
aS'000000278890.png'
p2434
aS'000000278966.png'
p2435
aS'000000279078.png'
p2436
aS'000000279097.png'
p2437
aS'000000279140.png'
p2438
aS'000000279145.png'
p2439
aS'000000279209.png'
p2440
aS'000000279386.png'
p2441
aS'000000279491.png'
p2442
aS'000000279524.png'
p2443
aS'000000279769.png'
p2444
aS'000000279824.png'
p2445
aS'000000279974.png'
p2446
aS'000000280536.png'
p2447
aS'000000280710.png'
p2448
aS'000000280819.png'
p2449
aS'000000280857.png'
p2450
aS'000000280858.png'
p2451
aS'000000280918.png'
p2452
aS'000000281028.png'
p2453
aS'000000281111.png'
p2454
aS'000000281179.png'
p2455
aS'000000281601.png'
p2456
aS'000000281688.png'
p2457
aS'000000281711.png'
p2458
aS'000000281758.png'
p2459
aS'000000282298.png'
p2460
aS'000000282553.png'
p2461
aS'000000282618.png'
p2462
aS'000000282659.png'
p2463
aS'000000283012.png'
p2464
aS'000000283060.png'
p2465
aS'000000283097.png'
p2466
aS'000000283203.png'
p2467
aS'000000283277.png'
p2468
aS'000000283286.png'
p2469
aS'000000283471.png'
p2470
aS'000000283498.png'
p2471
aS'000000283653.png'
p2472
aS'000000283816.png'
p2473
aS'000000284152.png'
p2474
aS'000000284160.png'
p2475
aS'000000284623.png'
p2476
aS'000000284641.png'
p2477
aS'000000284658.png'
p2478
aS'000000284954.png'
p2479
aS'000000285005.png'
p2480
aS'000000285258.png'
p2481
aS'000000285462.png'
p2482
aS'000000285534.png'
p2483
aS'000000285568.png'
p2484
aS'000000285633.png'
p2485
aS'000000285660.png'
p2486
aS'000000285820.png'
p2487
aS'000000285832.png'
p2488
aS'000000285967.png'
p2489
aS'000000286089.png'
p2490
aS'000000286524.png'
p2491
aS'000000286553.png'
p2492
aS'000000287033.png'
p2493
aS'000000287235.png'
p2494
aS'000000287387.png'
p2495
aS'000000287396.png'
p2496
aS'000000287402.png'
p2497
aS'000000287443.png'
p2498
aS'000000287649.png'
p2499
aS'000000287663.png'
p2500
aS'000000287667.png'
p2501
aS'000000287714.png'
p2502
aS'000000287741.png'
p2503
aS'000000288042.png'
p2504
aS'000000288224.png'
p2505
aS'000000288313.png'
p2506
aS'000000288442.png'
p2507
aS'000000288639.png'
p2508
aS'000000288769.png'
p2509
aS'000000288824.png'
p2510
aS'000000288890.png'
p2511
aS'000000288933.png'
p2512
aS'000000288944.png'
p2513
aS'000000288955.png'
p2514
aS'000000289120.png'
p2515
aS'000000289201.png'
p2516
aS'000000289222.png'
p2517
aS'000000289260.png'
p2518
aS'000000289318.png'
p2519
aS'000000289393.png'
p2520
aS'000000289618.png'
p2521
aS'000000289640.png'
p2522
aS'000000289741.png'
p2523
aS'000000289813.png'
p2524
aS'000000289941.png'
p2525
aS'000000289995.png'
p2526
aS'000000290093.png'
p2527
aS'000000290113.png'
p2528
aS'000000290196.png'
p2529
aS'000000290248.png'
p2530
aS'000000290289.png'
p2531
aS'000000290828.png'
p2532
aS'000000290839.png'
p2533
aS'000000290979.png'
p2534
aS'000000291257.png'
p2535
aS'000000291394.png'
p2536
aS'000000291404.png'
p2537
aS'000000291686.png'
p2538
aS'000000291742.png'
p2539
aS'000000291784.png'
p2540
aS'000000291936.png'
p2541
aS'000000292118.png'
p2542
aS'000000292158.png'
p2543
aS'000000292301.png'
p2544
aS'000000292394.png'
p2545
aS'000000292463.png'
p2546
aS'000000292480.png'
p2547
aS'000000292493.png'
p2548
aS'000000292741.png'
p2549
aS'000000292792.png'
p2550
aS'000000292931.png'
p2551
aS'000000292997.png'
p2552
aS'000000293022.png'
p2553
aS'000000293027.png'
p2554
aS'000000293034.png'
p2555
aS'000000293125.png'
p2556
aS'000000293148.png'
p2557
aS'000000293249.png'
p2558
aS'000000293390.png'
p2559
aS'000000293548.png'
p2560
aS'000000293554.png'
p2561
aS'000000293625.png'
p2562
aS'000000293841.png'
p2563
aS'000000294032.png'
p2564
aS'000000294124.png'
p2565
aS'000000294134.png'
p2566
aS'000000294297.png'
p2567
aS'000000294451.png'
p2568
aS'000000294541.png'
p2569
aS'000000294689.png'
p2570
aS'000000294698.png'
p2571
aS'000000295055.png'
p2572
aS'000000295134.png'
p2573
aS'000000295316.png'
p2574
aS'000000295403.png'
p2575
aS'000000295420.png'
p2576
aS'000000295683.png'
p2577
aS'000000296056.png'
p2578
aS'000000296072.png'
p2579
aS'000000296176.png'
p2580
aS'000000296222.png'
p2581
aS'000000296224.png'
p2582
aS'000000296231.png'
p2583
aS'000000296243.png'
p2584
aS'000000296303.png'
p2585
aS'000000296604.png'
p2586
aS'000000296825.png'
p2587
aS'000000296907.png'
p2588
aS'000000296988.png'
p2589
aS'000000296997.png'
p2590
aS'000000297233.png'
p2591
aS'000000297349.png'
p2592
aS'000000297520.png'
p2593
aS'000000297562.png'
p2594
aS'000000297944.png'
p2595
aS'000000298252.png'
p2596
aS'000000298261.png'
p2597
aS'000000298396.png'
p2598
aS'000000298405.png'
p2599
aS'000000298461.png'
p2600
aS'000000298525.png'
p2601
aS'000000298540.png'
p2602
aS'000000298578.png'
p2603
aS'000000298697.png'
p2604
aS'000000298732.png'
p2605
aS'000000298784.png'
p2606
aS'000000299074.png'
p2607
aS'000000299207.png'
p2608
aS'000000299593.png'
p2609
aS'000000299649.png'
p2610
aS'000000299887.png'
p2611
aS'000000300008.png'
p2612
aS'000000300066.png'
p2613
aS'000000300330.png'
p2614
aS'000000300413.png'
p2615
aS'000000300437.png'
p2616
aS'000000300472.png'
p2617
aS'000000300538.png'
p2618
aS'000000300577.png'
p2619
aS'000000300718.png'
p2620
aS'000000300753.png'
p2621
aS'000000301082.png'
p2622
aS'000000301305.png'
p2623
aS'000000301582.png'
p2624
aS'000000301634.png'
p2625
aS'000000301735.png'
p2626
aS'000000301746.png'
p2627
aS'000000301817.png'
p2628
aS'000000301867.png'
p2629
aS'000000301963.png'
p2630
aS'000000302067.png'
p2631
aS'000000302110.png'
p2632
aS'000000302159.png'
p2633
aS'000000302219.png'
p2634
aS'000000302275.png'
p2635
aS'000000302380.png'
p2636
aS'000000302603.png'
p2637
aS'000000302789.png'
p2638
aS'000000303024.png'
p2639
aS'000000303219.png'
p2640
aS'000000303305.png'
p2641
aS'000000303413.png'
p2642
aS'000000303520.png'
p2643
aS'000000303607.png'
p2644
aS'000000303652.png'
p2645
aS'000000303667.png'
p2646
aS'000000303670.png'
p2647
aS'000000303847.png'
p2648
aS'000000304069.png'
p2649
aS'000000304083.png'
p2650
aS'000000304186.png'
p2651
aS'000000304341.png'
p2652
aS'000000304379.png'
p2653
aS'000000304917.png'
p2654
aS'000000304941.png'
p2655
aS'000000305050.png'
p2656
aS'000000305101.png'
p2657
aS'000000305135.png'
p2658
aS'000000305695.png'
p2659
aS'000000305978.png'
p2660
aS'000000306230.png'
p2661
aS'000000306313.png'
p2662
aS'000000306335.png'
p2663
aS'000000306343.png'
p2664
aS'000000306395.png'
p2665
aS'000000306453.png'
p2666
aS'000000306466.png'
p2667
aS'000000306467.png'
p2668
aS'000000306486.png'
p2669
aS'000000306638.png'
p2670
aS'000000306644.png'
p2671
aS'000000306688.png'
p2672
aS'000000306940.png'
p2673
aS'000000306974.png'
p2674
aS'000000307323.png'
p2675
aS'000000307342.png'
p2676
aS'000000307511.png'
p2677
aS'000000307564.png'
p2678
aS'000000307773.png'
p2679
aS'000000307800.png'
p2680
aS'000000308101.png'
p2681
aS'000000308117.png'
p2682
aS'000000308274.png'
p2683
aS'000000308328.png'
p2684
aS'000000308332.png'
p2685
aS'000000308430.png'
p2686
aS'000000308730.png'
p2687
aS'000000308793.png'
p2688
aS'000000308900.png'
p2689
aS'000000308964.png'
p2690
aS'000000309022.png'
p2691
aS'000000309033.png'
p2692
aS'000000309232.png'
p2693
aS'000000309237.png'
p2694
aS'000000309514.png'
p2695
aS'000000309573.png'
p2696
aS'000000309633.png'
p2697
aS'000000309655.png'
p2698
aS'000000309692.png'
p2699
aS'000000309852.png'
p2700
aS'000000310035.png'
p2701
aS'000000310200.png'
p2702
aS'000000310354.png'
p2703
aS'000000310524.png'
p2704
aS'000000310532.png'
p2705
aS'000000310735.png'
p2706
aS'000000310770.png'
p2707
aS'000000310906.png'
p2708
aS'000000311309.png'
p2709
aS'000000311327.png'
p2710
aS'000000311385.png'
p2711
aS'000000311531.png'
p2712
aS'000000311553.png'
p2713
aS'000000311846.png'
p2714
aS'000000311891.png'
p2715
aS'000000312056.png'
p2716
aS'000000312175.png'
p2717
aS'000000312192.png'
p2718
aS'000000312412.png'
p2719
aS'000000312423.png'
p2720
aS'000000312559.png'
p2721
aS'000000312627.png'
p2722
aS'000000312632.png'
p2723
aS'000000312868.png'
p2724
aS'000000312870.png'
p2725
aS'000000313034.png'
p2726
aS'000000313130.png'
p2727
aS'000000313240.png'
p2728
aS'000000313246.png'
p2729
aS'000000313337.png'
p2730
aS'000000313341.png'
p2731
aS'000000313562.png'
p2732
aS'000000313593.png'
p2733
aS'000000313948.png'
p2734
aS'000000314023.png'
p2735
aS'000000314074.png'
p2736
aS'000000314251.png'
p2737
aS'000000314504.png'
p2738
aS'000000314694.png'
p2739
aS'000000314757.png'
p2740
aS'000000314792.png'
p2741
aS'000000314876.png'
p2742
aS'000000315178.png'
p2743
aS'000000315195.png'
p2744
aS'000000315565.png'
p2745
aS'000000315641.png'
p2746
aS'000000315660.png'
p2747
aS'000000315702.png'
p2748
aS'000000315744.png'
p2749
aS'000000315769.png'
p2750
aS'000000315790.png'
p2751
aS'000000315962.png'
p2752
aS'000000316008.png'
p2753
aS'000000316189.png'
p2754
aS'000000316342.png'
p2755
aS'000000316499.png'
p2756
aS'000000316526.png'
p2757
aS'000000316617.png'
p2758
aS'000000316666.png'
p2759
aS'000000316675.png'
p2760
aS'000000316704.png'
p2761
aS'000000316862.png'
p2762
aS'000000317357.png'
p2763
aS'000000317622.png'
p2764
aS'000000317798.png'
p2765
aS'000000317898.png'
p2766
aS'000000318044.png'
p2767
aS'000000318204.png'
p2768
aS'000000318455.png'
p2769
aS'000000318523.png'
p2770
aS'000000318550.png'
p2771
aS'000000318585.png'
p2772
aS'000000318701.png'
p2773
aS'000000318777.png'
p2774
aS'000000318888.png'
p2775
aS'000000319053.png'
p2776
aS'000000319345.png'
p2777
aS'000000319579.png'
p2778
aS'000000319706.png'
p2779
aS'000000319743.png'
p2780
aS'000000320246.png'
p2781
aS'000000320428.png'
p2782
aS'000000320641.png'
p2783
aS'000000320664.png'
p2784
aS'000000320703.png'
p2785
aS'000000321195.png'
p2786
aS'000000321214.png'
p2787
aS'000000321242.png'
p2788
aS'000000321332.png'
p2789
aS'000000321798.png'
p2790
aS'000000321861.png'
p2791
aS'000000321865.png'
p2792
aS'000000322141.png'
p2793
aS'000000322163.png'
p2794
aS'000000322482.png'
p2795
aS'000000322574.png'
p2796
aS'000000322610.png'
p2797
aS'000000322848.png'
p2798
aS'000000322895.png'
p2799
aS'000000323067.png'
p2800
aS'000000323288.png'
p2801
aS'000000323327.png'
p2802
aS'000000323370.png'
p2803
aS'000000323515.png'
p2804
aS'000000323525.png'
p2805
aS'000000323682.png'
p2806
aS'000000323827.png'
p2807
aS'000000323888.png'
p2808
aS'000000324008.png'
p2809
aS'000000324258.png'
p2810
aS'000000324321.png'
p2811
aS'000000324322.png'
p2812
aS'000000324338.png'
p2813
aS'000000324500.png'
p2814
aS'000000324837.png'
p2815
aS'000000325102.png'
p2816
aS'000000325374.png'
p2817
aS'000000325483.png'
p2818
aS'000000325720.png'
p2819
aS'000000325838.png'
p2820
aS'000000325867.png'
p2821
aS'000000326086.png'
p2822
aS'000000326428.png'
p2823
aS'000000326510.png'
p2824
aS'000000326702.png'
p2825
aS'000000326854.png'
p2826
aS'000000326863.png'
p2827
aS'000000326937.png'
p2828
aS'000000326970.png'
p2829
aS'000000327047.png'
p2830
aS'000000327114.png'
p2831
aS'000000327255.png'
p2832
aS'000000327383.png'
p2833
aS'000000327413.png'
p2834
aS'000000327590.png'
p2835
aS'000000327780.png'
p2836
aS'000000327807.png'
p2837
aS'000000327890.png'
p2838
aS'000000328008.png'
p2839
aS'000000328091.png'
p2840
aS'000000328111.png'
p2841
aS'000000328200.png'
p2842
aS'000000328255.png'
p2843
aS'000000328289.png'
p2844
aS'000000328374.png'
p2845
aS'000000328403.png'
p2846
aS'000000328421.png'
p2847
aS'000000328433.png'
p2848
aS'000000328536.png'
p2849
aS'000000328661.png'
p2850
aS'000000328728.png'
p2851
aS'000000328797.png'
p2852
aS'000000328836.png'
p2853
aS'000000328838.png'
p2854
aS'000000328862.png'
p2855
aS'000000328890.png'
p2856
aS'000000329080.png'
p2857
aS'000000329217.png'
p2858
aS'000000329336.png'
p2859
aS'000000329341.png'
p2860
aS'000000329373.png'
p2861
aS'000000329455.png'
p2862
aS'000000329573.png'
p2863
aS'000000329850.png'
p2864
aS'000000329946.png'
p2865
aS'000000330110.png'
p2866
aS'000000330122.png'
p2867
aS'000000330248.png'
p2868
aS'000000330500.png'
p2869
aS'000000330522.png'
p2870
aS'000000330536.png'
p2871
aS'000000330676.png'
p2872
aS'000000330750.png'
p2873
aS'000000331230.png'
p2874
aS'000000331242.png'
p2875
aS'000000331268.png'
p2876
aS'000000331366.png'
p2877
aS'000000331395.png'
p2878
aS'000000331475.png'
p2879
aS'000000331535.png'
p2880
aS'000000331627.png'
p2881
aS'000000331688.png'
p2882
aS'000000331712.png'
p2883
aS'000000331817.png'
p2884
aS'000000332159.png'
p2885
aS'000000332407.png'
p2886
aS'000000332609.png'
p2887
aS'000000332844.png'
p2888
aS'000000332845.png'
p2889
aS'000000332861.png'
p2890
aS'000000332908.png'
p2891
aS'000000332914.png'
p2892
aS'000000333095.png'
p2893
aS'000000333150.png'
p2894
aS'000000333434.png'
p2895
aS'000000333888.png'
p2896
aS'000000333998.png'
p2897
aS'000000334007.png'
p2898
aS'000000334034.png'
p2899
aS'000000334118.png'
p2900
aS'000000334178.png'
p2901
aS'000000334332.png'
p2902
aS'000000334399.png'
p2903
aS'000000334469.png'
p2904
aS'000000334509.png'
p2905
aS'000000334511.png'
p2906
aS'000000334746.png'
p2907
aS'000000334975.png'
p2908
aS'000000335521.png'
p2909
aS'000000335670.png'
p2910
aS'000000335844.png'
p2911
aS'000000336053.png'
p2912
aS'000000336182.png'
p2913
aS'000000336300.png'
p2914
aS'000000336324.png'
p2915
aS'000000336862.png'
p2916
aS'000000336872.png'
p2917
aS'000000337160.png'
p2918
aS'000000337180.png'
p2919
aS'000000337233.png'
p2920
aS'000000337354.png'
p2921
aS'000000337443.png'
p2922
aS'000000337498.png'
p2923
aS'000000337551.png'
p2924
aS'000000337561.png'
p2925
aS'000000337563.png'
p2926
aS'000000338105.png'
p2927
aS'000000338159.png'
p2928
aS'000000338207.png'
p2929
aS'000000338417.png'
p2930
aS'000000338625.png'
p2931
aS'000000338901.png'
p2932
aS'000000338948.png'
p2933
aS'000000339986.png'
p2934
aS'000000340069.png'
p2935
aS'000000340420.png'
p2936
aS'000000340511.png'
p2937
aS'000000340665.png'
p2938
aS'000000340804.png'
p2939
aS'000000340894.png'
p2940
aS'000000340922.png'
p2941
aS'000000341017.png'
p2942
aS'000000341230.png'
p2943
aS'000000341246.png'
p2944
aS'000000341401.png'
p2945
aS'000000341409.png'
p2946
aS'000000341603.png'
p2947
aS'000000341645.png'
p2948
aS'000000341719.png'
p2949
aS'000000342060.png'
p2950
aS'000000342146.png'
p2951
aS'000000342204.png'
p2952
aS'000000342293.png'
p2953
aS'000000342322.png'
p2954
aS'000000342367.png'
p2955
aS'000000342675.png'
p2956
aS'000000342765.png'
p2957
aS'000000342770.png'
p2958
aS'000000342819.png'
p2959
aS'000000342933.png'
p2960
aS'000000343068.png'
p2961
aS'000000343504.png'
p2962
aS'000000343552.png'
p2963
aS'000000343642.png'
p2964
aS'000000343852.png'
p2965
aS'000000343967.png'
p2966
aS'000000344029.png'
p2967
aS'000000344125.png'
p2968
aS'000000344154.png'
p2969
aS'000000344271.png'
p2970
aS'000000344279.png'
p2971
aS'000000344308.png'
p2972
aS'000000344498.png'
p2973
aS'000000344521.png'
p2974
aS'000000344548.png'
p2975
aS'000000344878.png'
p2976
aS'000000344881.png'
p2977
aS'000000344903.png'
p2978
aS'000000345071.png'
p2979
aS'000000345353.png'
p2980
aS'000000345356.png'
p2981
aS'000000345376.png'
p2982
aS'000000345434.png'
p2983
aS'000000346207.png'
p2984
aS'000000346262.png'
p2985
aS'000000346589.png'
p2986
aS'000000346638.png'
p2987
aS'000000346702.png'
p2988
aS'000000346759.png'
p2989
aS'000000346904.png'
p2990
aS'000000347113.png'
p2991
aS'000000347172.png'
p2992
aS'000000347390.png'
p2993
aS'000000347544.png'
p2994
aS'000000347568.png'
p2995
aS'000000347766.png'
p2996
aS'000000347818.png'
p2997
aS'000000347930.png'
p2998
aS'000000347995.png'
p2999
aS'000000348091.png'
p3000
aS'000000348186.png'
p3001
aS'000000348481.png'
p3002
aS'000000348730.png'
p3003
aS'000000348913.png'
p3004
aS'000000349006.png'
p3005
aS'000000349101.png'
p3006
aS'000000349130.png'
p3007
aS'000000349485.png'
p3008
aS'000000349647.png'
p3009
aS'000000349888.png'
p3010
aS'000000349936.png'
p3011
aS'000000350003.png'
p3012
aS'000000350023.png'
p3013
aS'000000350073.png'
p3014
aS'000000350122.png'
p3015
aS'000000350157.png'
p3016
aS'000000350214.png'
p3017
aS'000000350230.png'
p3018
aS'000000350231.png'
p3019
aS'000000350262.png'
p3020
aS'000000350270.png'
p3021
aS'000000350389.png'
p3022
aS'000000350639.png'
p3023
aS'000000350874.png'
p3024
aS'000000350898.png'
p3025
aS'000000350974.png'
p3026
aS'000000351130.png'
p3027
aS'000000351331.png'
p3028
aS'000000351351.png'
p3029
aS'000000351489.png'
p3030
aS'000000351887.png'
p3031
aS'000000352194.png'
p3032
aS'000000352418.png'
p3033
aS'000000352552.png'
p3034
aS'000000352652.png'
p3035
aS'000000352703.png'
p3036
aS'000000352895.png'
p3037
aS'000000353001.png'
p3038
aS'000000353028.png'
p3039
aS'000000353130.png'
p3040
aS'000000353136.png'
p3041
aS'000000353149.png'
p3042
aS'000000353411.png'
p3043
aS'000000353510.png'
p3044
aS'000000353593.png'
p3045
aS'000000353953.png'
p3046
aS'000000353982.png'
p3047
aS'000000354368.png'
p3048
aS'000000354724.png'
p3049
aS'000000355106.png'
p3050
aS'000000355123.png'
p3051
aS'000000355183.png'
p3052
aS'000000355450.png'
p3053
aS'000000355569.png'
p3054
aS'000000355762.png'
p3055
aS'000000356169.png'
p3056
aS'000000356263.png'
p3057
aS'000000356349.png'
p3058
aS'000000356358.png'
p3059
aS'000000356380.png'
p3060
aS'000000356394.png'
p3061
aS'000000356528.png'
p3062
aS'000000356531.png'
p3063
aS'000000356733.png'
p3064
aS'000000357229.png'
p3065
aS'000000357278.png'
p3066
aS'000000357317.png'
p3067
aS'000000357418.png'
p3068
aS'000000357478.png'
p3069
aS'000000357578.png'
p3070
aS'000000357633.png'
p3071
aS'000000357737.png'
p3072
aS'000000357743.png'
p3073
aS'000000357819.png'
p3074
aS'000000357870.png'
p3075
aS'000000357888.png'
p3076
aS'000000357899.png'
p3077
aS'000000358231.png'
p3078
aS'000000358252.png'
p3079
aS'000000358293.png'
p3080
aS'000000358296.png'
p3081
aS'000000358525.png'
p3082
aS'000000358606.png'
p3083
aS'000000358653.png'
p3084
aS'000000358658.png'
p3085
aS'000000358707.png'
p3086
aS'000000358765.png'
p3087
aS'000000358796.png'
p3088
aS'000000358817.png'
p3089
aS'000000358976.png'
p3090
aS'000000359128.png'
p3091
aS'000000359164.png'
p3092
aS'000000359182.png'
p3093
aS'000000359219.png'
p3094
aS'000000359220.png'
p3095
aS'000000359239.png'
p3096
aS'000000359432.png'
p3097
aS'000000359569.png'
p3098
aS'000000359715.png'
p3099
aS'000000359801.png'
p3100
aS'000000360073.png'
p3101
aS'000000360216.png'
p3102
aS'000000360447.png'
p3103
aS'000000360449.png'
p3104
aS'000000360494.png'
p3105
aS'000000360573.png'
p3106
aS'000000360600.png'
p3107
aS'000000360629.png'
p3108
aS'000000360661.png'
p3109
aS'000000360706.png'
p3110
aS'000000360877.png'
p3111
aS'000000360878.png'
p3112
aS'000000360902.png'
p3113
aS'000000361073.png'
p3114
aS'000000361111.png'
p3115
aS'000000361238.png'
p3116
aS'000000361282.png'
p3117
aS'000000361351.png'
p3118
aS'000000361382.png'
p3119
aS'000000361430.png'
p3120
aS'000000361481.png'
p3121
aS'000000361506.png'
p3122
aS'000000361521.png'
p3123
aS'000000361527.png'
p3124
aS'000000361730.png'
p3125
aS'000000361901.png'
p3126
aS'000000361933.png'
p3127
aS'000000362094.png'
p3128
aS'000000362219.png'
p3129
aS'000000362530.png'
p3130
aS'000000362640.png'
p3131
aS'000000362941.png'
p3132
aS'000000362951.png'
p3133
aS'000000363207.png'
p3134
aS'000000363286.png'
p3135
aS'000000363308.png'
p3136
aS'000000363415.png'
p3137
aS'000000363527.png'
p3138
aS'000000363581.png'
p3139
aS'000000363645.png'
p3140
aS'000000363654.png'
p3141
aS'000000363767.png'
p3142
aS'000000363784.png'
p3143
aS'000000363840.png'
p3144
aS'000000363844.png'
p3145
aS'000000363845.png'
p3146
aS'000000364016.png'
p3147
aS'000000364031.png'
p3148
aS'000000364157.png'
p3149
aS'000000364266.png'
p3150
aS'000000364284.png'
p3151
aS'000000364340.png'
p3152
aS'000000364399.png'
p3153
aS'000000364470.png'
p3154
aS'000000364493.png'
p3155
aS'000000364596.png'
p3156
aS'000000364608.png'
p3157
aS'000000364745.png'
p3158
aS'000000364919.png'
p3159
aS'000000365214.png'
p3160
aS'000000365618.png'
p3161
aS'000000365623.png'
p3162
aS'000000365626.png'
p3163
aS'000000365745.png'
p3164
aS'000000365766.png'
p3165
aS'000000366096.png'
p3166
aS'000000366141.png'
p3167
aS'000000366499.png'
p3168
aS'000000366576.png'
p3169
aS'000000366659.png'
p3170
aS'000000366884.png'
p3171
aS'000000367074.png'
p3172
aS'000000367142.png'
p3173
aS'000000367310.png'
p3174
aS'000000367386.png'
p3175
aS'000000367398.png'
p3176
aS'000000367468.png'
p3177
aS'000000367578.png'
p3178
aS'000000367666.png'
p3179
aS'000000367848.png'
p3180
aS'000000368193.png'
p3181
aS'000000368196.png'
p3182
aS'000000368218.png'
p3183
aS'000000368302.png'
p3184
aS'000000368541.png'
p3185
aS'000000368595.png'
p3186
aS'000000368648.png'
p3187
aS'000000368684.png'
p3188
aS'000000368855.png'
p3189
aS'000000368900.png'
p3190
aS'000000368961.png'
p3191
aS'000000368980.png'
p3192
aS'000000368994.png'
p3193
aS'000000369082.png'
p3194
aS'000000369093.png'
p3195
aS'000000369249.png'
p3196
aS'000000369259.png'
p3197
aS'000000369345.png'
p3198
aS'000000369370.png'
p3199
aS'000000369379.png'
p3200
aS'000000369442.png'
p3201
aS'000000369482.png'
p3202
aS'000000369533.png'
p3203
aS'000000369584.png'
p3204
aS'000000369685.png'
p3205
aS'000000369771.png'
p3206
aS'000000369979.png'
p3207
aS'000000370209.png'
p3208
aS'000000370266.png'
p3209
aS'000000370462.png'
p3210
aS'000000370475.png'
p3211
aS'000000370478.png'
p3212
aS'000000370513.png'
p3213
aS'000000370657.png'
p3214
aS'000000370839.png'
p3215
aS'000000370899.png'
p3216
aS'000000370953.png'
p3217
aS'000000371054.png'
p3218
aS'000000371365.png'
p3219
aS'000000371652.png'
p3220
aS'000000371677.png'
p3221
aS'000000371890.png'
p3222
aS'000000372294.png'
p3223
aS'000000372794.png'
p3224
aS'000000373029.png'
p3225
aS'000000373060.png'
p3226
aS'000000373075.png'
p3227
aS'000000373111.png'
p3228
aS'000000373381.png'
p3229
aS'000000373424.png'
p3230
aS'000000373768.png'
p3231
aS'000000373857.png'
p3232
aS'000000373904.png'
p3233
aS'000000373945.png'
p3234
aS'000000374043.png'
p3235
aS'000000374115.png'
p3236
aS'000000374448.png'
p3237
aS'000000375021.png'
p3238
aS'000000375184.png'
p3239
aS'000000375205.png'
p3240
aS'000000375232.png'
p3241
aS'000000375285.png'
p3242
aS'000000375407.png'
p3243
aS'000000375450.png'
p3244
aS'000000375484.png'
p3245
aS'000000375493.png'
p3246
aS'000000375503.png'
p3247
aS'000000375509.png'
p3248
aS'000000375810.png'
p3249
aS'000000376093.png'
p3250
aS'000000376295.png'
p3251
aS'000000376549.png'
p3252
aS'000000376564.png'
p3253
aS'000000376667.png'
p3254
aS'000000376773.png'
p3255
aS'000000376891.png'
p3256
aS'000000376959.png'
p3257
aS'000000377097.png'
p3258
aS'000000377195.png'
p3259
aS'000000377393.png'
p3260
aS'000000377595.png'
p3261
aS'000000377730.png'
p3262
aS'000000377867.png'
p3263
aS'000000377949.png'
p3264
aS'000000377999.png'
p3265
aS'000000378502.png'
p3266
aS'000000378506.png'
p3267
aS'000000378614.png'
p3268
aS'000000378655.png'
p3269
aS'000000378962.png'
p3270
aS'000000378968.png'
p3271
aS'000000379441.png'
p3272
aS'000000379605.png'
p3273
aS'000000379636.png'
p3274
aS'000000379716.png'
p3275
aS'000000379882.png'
p3276
aS'000000379892.png'
p3277
aS'000000380057.png'
p3278
aS'000000380348.png'
p3279
aS'000000380459.png'
p3280
aS'000000380734.png'
p3281
aS'000000380756.png'
p3282
aS'000000380854.png'
p3283
aS'000000380892.png'
p3284
aS'000000381123.png'
p3285
aS'000000381416.png'
p3286
aS'000000381463.png'
p3287
aS'000000381504.png'
p3288
aS'000000381563.png'
p3289
aS'000000382125.png'
p3290
aS'000000382307.png'
p3291
aS'000000382512.png'
p3292
aS'000000382603.png'
p3293
aS'000000382668.png'
p3294
aS'000000382670.png'
p3295
aS'000000382696.png'
p3296
aS'000000382737.png'
p3297
aS'000000382801.png'
p3298
aS'000000383107.png'
p3299
aS'000000383112.png'
p3300
aS'000000383270.png'
p3301
aS'000000383337.png'
p3302
aS'000000383406.png'
p3303
aS'000000383414.png'
p3304
aS'000000383448.png'
p3305
aS'000000383549.png'
p3306
aS'000000383594.png'
p3307
aS'000000383606.png'
p3308
aS'000000383678.png'
p3309
aS'000000384038.png'
p3310
aS'000000384114.png'
p3311
aS'000000384468.png'
p3312
aS'000000384527.png'
p3313
aS'000000384531.png'
p3314
aS'000000384670.png'
p3315
aS'000000384823.png'
p3316
aS'000000384931.png'
p3317
aS'000000384981.png'
p3318
aS'000000384983.png'
p3319
aS'000000385029.png'
p3320
aS'000000385181.png'
p3321
aS'000000385378.png'
p3322
aS'000000385770.png'
p3323
aS'000000385997.png'
p3324
aS'000000386165.png'
p3325
aS'000000386187.png'
p3326
aS'000000386313.png'
p3327
aS'000000386370.png'
p3328
aS'000000386424.png'
p3329
aS'000000386525.png'
p3330
aS'000000386553.png'
p3331
aS'000000386581.png'
p3332
aS'000000386912.png'
p3333
aS'000000387098.png'
p3334
aS'000000387150.png'
p3335
aS'000000387369.png'
p3336
aS'000000387429.png'
p3337
aS'000000387482.png'
p3338
aS'000000387850.png'
p3339
aS'000000387909.png'
p3340
aS'000000387950.png'
p3341
aS'000000387990.png'
p3342
aS'000000388026.png'
p3343
aS'000000388042.png'
p3344
aS'000000388066.png'
p3345
aS'000000388100.png'
p3346
aS'000000388299.png'
p3347
aS'000000388619.png'
p3348
aS'000000388677.png'
p3349
aS'000000388707.png'
p3350
aS'000000388829.png'
p3351
aS'000000389108.png'
p3352
aS'000000389168.png'
p3353
aS'000000389205.png'
p3354
aS'000000389258.png'
p3355
aS'000000389295.png'
p3356
aS'000000389453.png'
p3357
aS'000000389458.png'
p3358
aS'000000389644.png'
p3359
aS'000000389649.png'
p3360
aS'000000389753.png'
p3361
aS'000000390052.png'
p3362
aS'000000390130.png'
p3363
aS'000000390471.png'
p3364
aS'000000390704.png'
p3365
aS'000000390731.png'
p3366
aS'000000390826.png'
p3367
aS'000000391320.png'
p3368
aS'000000391415.png'
p3369
aS'000000391862.png'
p3370
aS'000000391940.png'
p3371
aS'000000391972.png'
p3372
aS'000000392229.png'
p3373
aS'000000392320.png'
p3374
aS'000000392575.png'
p3375
aS'000000392753.png'
p3376
aS'000000393226.png'
p3377
aS'000000393266.png'
p3378
aS'000000393271.png'
p3379
aS'000000393288.png'
p3380
aS'000000393497.png'
p3381
aS'000000393569.png'
p3382
aS'000000393682.png'
p3383
aS'000000393692.png'
p3384
aS'000000393794.png'
p3385
aS'000000393804.png'
p3386
aS'000000394009.png'
p3387
aS'000000394033.png'
p3388
aS'000000394079.png'
p3389
aS'000000394131.png'
p3390
aS'000000394199.png'
p3391
aS'000000394206.png'
p3392
aS'000000394474.png'
p3393
aS'000000394510.png'
p3394
aS'000000394659.png'
p3395
aS'000000394715.png'
p3396
aS'000000394840.png'
p3397
aS'000000394904.png'
p3398
aS'000000395291.png'
p3399
aS'000000395343.png'
p3400
aS'000000395344.png'
p3401
aS'000000395364.png'
p3402
aS'000000395402.png'
p3403
aS'000000395557.png'
p3404
aS'000000395633.png'
p3405
aS'000000395634.png'
p3406
aS'000000395644.png'
p3407
aS'000000395701.png'
p3408
aS'000000395745.png'
p3409
aS'000000395801.png'
p3410
aS'000000395843.png'
p3411
aS'000000395865.png'
p3412
aS'000000396178.png'
p3413
aS'000000396302.png'
p3414
aS'000000396385.png'
p3415
aS'000000396387.png'
p3416
aS'000000396541.png'
p3417
aS'000000396845.png'
p3418
aS'000000397045.png'
p3419
aS'000000397063.png'
p3420
aS'000000397268.png'
p3421
aS'000000397303.png'
p3422
aS'000000397354.png'
p3423
aS'000000397433.png'
p3424
aS'000000397628.png'
p3425
aS'000000397636.png'
p3426
aS'000000397734.png'
p3427
aS'000000398119.png'
p3428
aS'000000398153.png'
p3429
aS'000000398423.png'
p3430
aS'000000398489.png'
p3431
aS'000000398534.png'
p3432
aS'000000398637.png'
p3433
aS'000000398727.png'
p3434
aS'000000398753.png'
p3435
aS'000000398758.png'
p3436
aS'000000398992.png'
p3437
aS'000000399178.png'
p3438
aS'000000399205.png'
p3439
aS'000000399452.png'
p3440
aS'000000399570.png'
p3441
aS'000000399595.png'
p3442
aS'000000399832.png'
p3443
aS'000000399879.png'
p3444
aS'000000400123.png'
p3445
aS'000000400139.png'
p3446
aS'000000400161.png'
p3447
aS'000000400166.png'
p3448
aS'000000400238.png'
p3449
aS'000000400431.png'
p3450
aS'000000400507.png'
p3451
aS'000000400525.png'
p3452
aS'000000400528.png'
p3453
aS'000000400567.png'
p3454
aS'000000400596.png'
p3455
aS'000000400728.png'
p3456
aS'000000400887.png'
p3457
aS'000000400916.png'
p3458
aS'000000400983.png'
p3459
aS'000000401004.png'
p3460
aS'000000401010.png'
p3461
aS'000000401027.png'
p3462
aS'000000401088.png'
p3463
aS'000000401446.png'
p3464
aS'000000401556.png'
p3465
aS'000000401971.png'
p3466
aS'000000402077.png'
p3467
aS'000000402115.png'
p3468
aS'000000402206.png'
p3469
aS'000000402233.png'
p3470
aS'000000402405.png'
p3471
aS'000000402786.png'
p3472
aS'000000403145.png'
p3473
aS'000000403150.png'
p3474
aS'000000403294.png'
p3475
aS'000000403500.png'
p3476
aS'000000403639.png'
p3477
aS'000000403657.png'
p3478
aS'000000404349.png'
p3479
aS'000000404444.png'
p3480
aS'000000404517.png'
p3481
aS'000000404526.png'
p3482
aS'000000404602.png'
p3483
aS'000000404758.png'
p3484
aS'000000405146.png'
p3485
aS'000000405188.png'
p3486
aS'000000405195.png'
p3487
aS'000000405214.png'
p3488
aS'000000405279.png'
p3489
aS'000000405444.png'
p3490
aS'000000405635.png'
p3491
aS'000000405657.png'
p3492
aS'000000405674.png'
p3493
aS'000000405736.png'
p3494
aS'000000406211.png'
p3495
aS'000000406253.png'
p3496
aS'000000406403.png'
p3497
aS'000000406611.png'
p3498
aS'000000406734.png'
p3499
aS'000000406841.png'
p3500
aS'000000406899.png'
p3501
aS'000000406997.png'
p3502
aS'000000407056.png'
p3503
aS'000000407115.png'
p3504
aS'000000407298.png'
p3505
aS'000000407386.png'
p3506
aS'000000407644.png'
p3507
aS'000000407868.png'
p3508
aS'000000408049.png'
p3509
aS'000000408235.png'
p3510
aS'000000408480.png'
p3511
aS'000000408859.png'
p3512
aS'000000409100.png'
p3513
aS'000000409303.png'
p3514
aS'000000409725.png'
p3515
aS'000000409855.png'
p3516
aS'000000409921.png'
p3517
aS'000000410056.png'
p3518
aS'000000410105.png'
p3519
aS'000000410225.png'
p3520
aS'000000410319.png'
p3521
aS'000000410350.png'
p3522
aS'000000410650.png'
p3523
aS'000000410942.png'
p3524
aS'000000411086.png'
p3525
aS'000000411241.png'
p3526
aS'000000411303.png'
p3527
aS'000000411530.png'
p3528
aS'000000411674.png'
p3529
aS'000000411817.png'
p3530
aS'000000412247.png'
p3531
aS'000000412437.png'
p3532
aS'000000412440.png'
p3533
aS'000000412443.png'
p3534
aS'000000412471.png'
p3535
aS'000000412483.png'
p3536
aS'000000412878.png'
p3537
aS'000000412899.png'
p3538
aS'000000412975.png'
p3539
aS'000000413044.png'
p3540
aS'000000413058.png'
p3541
aS'000000413079.png'
p3542
aS'000000413146.png'
p3543
aS'000000413339.png'
p3544
aS'000000413341.png'
p3545
aS'000000413358.png'
p3546
aS'000000413419.png'
p3547
aS'000000413805.png'
p3548
aS'000000413839.png'
p3549
aS'000000413955.png'
p3550
aS'000000414034.png'
p3551
aS'000000414102.png'
p3552
aS'000000414133.png'
p3553
aS'000000414156.png'
p3554
aS'000000414385.png'
p3555
aS'000000414516.png'
p3556
aS'000000414744.png'
p3557
aS'000000415048.png'
p3558
aS'000000415073.png'
p3559
aS'000000415076.png'
p3560
aS'000000415163.png'
p3561
aS'000000415179.png'
p3562
aS'000000415194.png'
p3563
aS'000000415334.png'
p3564
aS'000000415413.png'
p3565
aS'000000415432.png'
p3566
aS'000000415646.png'
p3567
aS'000000415716.png'
p3568
aS'000000415727.png'
p3569
aS'000000415746.png'
p3570
aS'000000416104.png'
p3571
aS'000000416308.png'
p3572
aS'000000416451.png'
p3573
aS'000000416543.png'
p3574
aS'000000416668.png'
p3575
aS'000000416930.png'
p3576
aS'000000416960.png'
p3577
aS'000000417430.png'
p3578
aS'000000417597.png'
p3579
aS'000000417632.png'
p3580
aS'000000417779.png'
p3581
aS'000000417965.png'
p3582
aS'000000418109.png'
p3583
aS'000000418471.png'
p3584
aS'000000418623.png'
p3585
aS'000000418680.png'
p3586
aS'000000418692.png'
p3587
aS'000000418816.png'
p3588
aS'000000418893.png'
p3589
aS'000000419081.png'
p3590
aS'000000419089.png'
p3591
aS'000000419344.png'
p3592
aS'000000419401.png'
p3593
aS'000000419473.png'
p3594
aS'000000419503.png'
p3595
aS'000000419653.png'
p3596
aS'000000419723.png'
p3597
aS'000000419789.png'
p3598
aS'000000419848.png'
p3599
aS'000000420081.png'
p3600
aS'000000420120.png'
p3601
aS'000000420229.png'
p3602
aS'000000420658.png'
p3603
aS'000000420666.png'
p3604
aS'000000421188.png'
p3605
aS'000000421471.png'
p3606
aS'000000421564.png'
p3607
aS'000000421566.png'
p3608
aS'000000421865.png'
p3609
aS'000000422240.png'
p3610
aS'000000422676.png'
p3611
aS'000000422700.png'
p3612
aS'000000422778.png'
p3613
aS'000000422918.png'
p3614
aS'000000423039.png'
p3615
aS'000000423093.png'
p3616
aS'000000423201.png'
p3617
aS'000000423498.png'
p3618
aS'000000423617.png'
p3619
aS'000000423618.png'
p3620
aS'000000423715.png'
p3621
aS'000000423744.png'
p3622
aS'000000423984.png'
p3623
aS'000000424146.png'
p3624
aS'000000424247.png'
p3625
aS'000000424464.png'
p3626
aS'000000424683.png'
p3627
aS'000000424866.png'
p3628
aS'000000424879.png'
p3629
aS'000000424940.png'
p3630
aS'000000424975.png'
p3631
aS'000000425324.png'
p3632
aS'000000425447.png'
p3633
aS'000000425578.png'
p3634
aS'000000425964.png'
p3635
aS'000000426011.png'
p3636
aS'000000426175.png'
p3637
aS'000000426202.png'
p3638
aS'000000426259.png'
p3639
aS'000000426611.png'
p3640
aS'000000426795.png'
p3641
aS'000000426897.png'
p3642
aS'000000426917.png'
p3643
aS'000000427034.png'
p3644
aS'000000427055.png'
p3645
aS'000000427113.png'
p3646
aS'000000427118.png'
p3647
aS'000000427133.png'
p3648
aS'000000427306.png'
p3649
aS'000000427341.png'
p3650
aS'000000427476.png'
p3651
aS'000000427612.png'
p3652
aS'000000427615.png'
p3653
aS'000000427750.png'
p3654
aS'000000427823.png'
p3655
aS'000000428067.png'
p3656
aS'000000428218.png'
p3657
aS'000000428231.png'
p3658
aS'000000428375.png'
p3659
aS'000000428403.png'
p3660
aS'000000428562.png'
p3661
aS'000000428985.png'
p3662
aS'000000429042.png'
p3663
aS'000000429174.png'
p3664
aS'000000429261.png'
p3665
aS'000000429505.png'
p3666
aS'000000429593.png'
p3667
aS'000000429598.png'
p3668
aS'000000429623.png'
p3669
aS'000000429754.png'
p3670
aS'000000429833.png'
p3671
aS'000000429924.png'
p3672
aS'000000430002.png'
p3673
aS'000000430047.png'
p3674
aS'000000430052.png'
p3675
aS'000000430073.png'
p3676
aS'000000430160.png'
p3677
aS'000000430287.png'
p3678
aS'000000430319.png'
p3679
aS'000000430469.png'
p3680
aS'000000430567.png'
p3681
aS'000000430690.png'
p3682
aS'000000431023.png'
p3683
aS'000000431067.png'
p3684
aS'000000431136.png'
p3685
aS'000000431152.png'
p3686
aS'000000431173.png'
p3687
aS'000000431190.png'
p3688
aS'000000431364.png'
p3689
aS'000000431495.png'
p3690
aS'000000431671.png'
p3691
aS'000000431891.png'
p3692
aS'000000431923.png'
p3693
aS'000000432106.png'
p3694
aS'000000432125.png'
p3695
aS'000000432213.png'
p3696
aS'000000432234.png'
p3697
aS'000000432333.png'
p3698
aS'000000432421.png'
p3699
aS'000000432519.png'
p3700
aS'000000432623.png'
p3701
aS'000000432657.png'
p3702
aS'000000432906.png'
p3703
aS'000000433182.png'
p3704
aS'000000433204.png'
p3705
aS'000000433277.png'
p3706
aS'000000433279.png'
p3707
aS'000000433499.png'
p3708
aS'000000433505.png'
p3709
aS'000000433515.png'
p3710
aS'000000433547.png'
p3711
aS'000000433574.png'
p3712
aS'000000433714.png'
p3713
aS'000000433892.png'
p3714
aS'000000433904.png'
p3715
aS'000000433915.png'
p3716
aS'000000434179.png'
p3717
aS'000000434297.png'
p3718
aS'000000434509.png'
p3719
aS'000000434511.png'
p3720
aS'000000434513.png'
p3721
aS'000000434548.png'
p3722
aS'000000434580.png'
p3723
aS'000000434898.png'
p3724
aS'000000434990.png'
p3725
aS'000000435075.png'
p3726
aS'000000435260.png'
p3727
aS'000000435384.png'
p3728
aS'000000435389.png'
p3729
aS'000000435391.png'
p3730
aS'000000435444.png'
p3731
aS'000000435475.png'
p3732
aS'000000435807.png'
p3733
aS'000000435880.png'
p3734
aS'000000435922.png'
p3735
aS'000000436130.png'
p3736
aS'000000436273.png'
p3737
aS'000000436814.png'
p3738
aS'000000436992.png'
p3739
aS'000000437240.png'
p3740
aS'000000437262.png'
p3741
aS'000000437325.png'
p3742
aS'000000437465.png'
p3743
aS'000000437494.png'
p3744
aS'000000437540.png'
p3745
aS'000000437859.png'
p3746
aS'000000438024.png'
p3747
aS'000000438364.png'
p3748
aS'000000438567.png'
p3749
aS'000000438737.png'
p3750
aS'000000439143.png'
p3751
aS'000000439593.png'
p3752
aS'000000439715.png'
p3753
aS'000000439773.png'
p3754
aS'000000439837.png'
p3755
aS'000000439840.png'
p3756
aS'000000440060.png'
p3757
aS'000000440212.png'
p3758
aS'000000440284.png'
p3759
aS'000000440387.png'
p3760
aS'000000440461.png'
p3761
aS'000000440486.png'
p3762
aS'000000440514.png'
p3763
aS'000000440529.png'
p3764
aS'000000440562.png'
p3765
aS'000000440724.png'
p3766
aS'000000440779.png'
p3767
aS'000000441156.png'
p3768
aS'000000441196.png'
p3769
aS'000000441240.png'
p3770
aS'000000441253.png'
p3771
aS'000000441415.png'
p3772
aS'000000441491.png'
p3773
aS'000000441511.png'
p3774
aS'000000441522.png'
p3775
aS'000000441541.png'
p3776
aS'000000441553.png'
p3777
aS'000000441672.png'
p3778
aS'000000441854.png'
p3779
aS'000000441862.png'
p3780
aS'000000441874.png'
p3781
aS'000000441969.png'
p3782
aS'000000442040.png'
p3783
aS'000000442128.png'
p3784
aS'000000442323.png'
p3785
aS'000000442419.png'
p3786
aS'000000442565.png'
p3787
aS'000000442582.png'
p3788
aS'000000442630.png'
p3789
aS'000000442667.png'
p3790
aS'000000442724.png'
p3791
aS'000000442929.png'
p3792
aS'000000442942.png'
p3793
aS'000000443167.png'
p3794
aS'000000443240.png'
p3795
aS'000000443313.png'
p3796
aS'000000443602.png'
p3797
aS'000000443772.png'
p3798
aS'000000443784.png'
p3799
aS'000000443887.png'
p3800
aS'000000444199.png'
p3801
aS'000000444209.png'
p3802
aS'000000444236.png'
p3803
aS'000000444444.png'
p3804
aS'000000444515.png'
p3805
aS'000000444565.png'
p3806
aS'000000444817.png'
p3807
aS'000000444913.png'
p3808
aS'000000444926.png'
p3809
aS'000000445009.png'
p3810
aS'000000445128.png'
p3811
aS'000000445233.png'
p3812
aS'000000445267.png'
p3813
aS'000000445309.png'
p3814
aS'000000445371.png'
p3815
aS'000000445433.png'
p3816
aS'000000445557.png'
p3817
aS'000000445643.png'
p3818
aS'000000445662.png'
p3819
aS'000000446352.png'
p3820
aS'000000446354.png'
p3821
aS'000000446626.png'
p3822
aS'000000447009.png'
p3823
aS'000000447169.png'
p3824
aS'000000447187.png'
p3825
aS'000000447328.png'
p3826
aS'000000447337.png'
p3827
aS'000000447522.png'
p3828
aS'000000447602.png'
p3829
aS'000000448076.png'
p3830
aS'000000448176.png'
p3831
aS'000000448181.png'
p3832
aS'000000448243.png'
p3833
aS'000000448269.png'
p3834
aS'000000448288.png'
p3835
aS'000000448518.png'
p3836
aS'000000448535.png'
p3837
aS'000000448795.png'
p3838
aS'000000448849.png'
p3839
aS'000000448897.png'
p3840
aS'000000448923.png'
p3841
aS'000000449075.png'
p3842
aS'000000449403.png'
p3843
aS'000000449567.png'
p3844
aS'000000449594.png'
p3845
aS'000000449638.png'
p3846
aS'000000449872.png'
p3847
aS'000000449888.png'
p3848
aS'000000450129.png'
p3849
aS'000000450182.png'
p3850
aS'000000450263.png'
p3851
aS'000000450303.png'
p3852
aS'000000450308.png'
p3853
aS'000000450359.png'
p3854
aS'000000450364.png'
p3855
aS'000000450391.png'
p3856
aS'000000450399.png'
p3857
aS'000000450561.png'
p3858
aS'000000450724.png'
p3859
aS'000000450790.png'
p3860
aS'000000451008.png'
p3861
aS'000000451120.png'
p3862
aS'000000451123.png'
p3863
aS'000000451144.png'
p3864
aS'000000451155.png'
p3865
aS'000000451228.png'
p3866
aS'000000451234.png'
p3867
aS'000000451275.png'
p3868
aS'000000451284.png'
p3869
aS'000000451324.png'
p3870
aS'000000451345.png'
p3871
aS'000000451440.png'
p3872
aS'000000451559.png'
p3873
aS'000000451571.png'
p3874
aS'000000451679.png'
p3875
aS'000000451859.png'
p3876
aS'000000451943.png'
p3877
aS'000000451944.png'
p3878
aS'000000452003.png'
p3879
aS'000000452312.png'
p3880
aS'000000452700.png'
p3881
aS'000000452966.png'
p3882
aS'000000453001.png'
p3883
aS'000000453159.png'
p3884
aS'000000453178.png'
p3885
aS'000000453283.png'
p3886
aS'000000453317.png'
p3887
aS'000000453334.png'
p3888
aS'000000453341.png'
p3889
aS'000000453400.png'
p3890
aS'000000453427.png'
p3891
aS'000000453824.png'
p3892
aS'000000453903.png'
p3893
aS'000000454203.png'
p3894
aS'000000454252.png'
p3895
aS'000000454762.png'
p3896
aS'000000455005.png'
p3897
aS'000000455267.png'
p3898
aS'000000455384.png'
p3899
aS'000000455395.png'
p3900
aS'000000455483.png'
p3901
aS'000000455735.png'
p3902
aS'000000455751.png'
p3903
aS'000000455767.png'
p3904
aS'000000455859.png'
p3905
aS'000000455937.png'
p3906
aS'000000455975.png'
p3907
aS'000000456012.png'
p3908
aS'000000456077.png'
p3909
aS'000000456199.png'
p3910
aS'000000456254.png'
p3911
aS'000000456323.png'
p3912
aS'000000456525.png'
p3913
aS'000000456574.png'
p3914
aS'000000456690.png'
p3915
aS'000000456730.png'
p3916
aS'000000456884.png'
p3917
aS'000000457037.png'
p3918
aS'000000457078.png'
p3919
aS'000000457204.png'
p3920
aS'000000457217.png'
p3921
aS'000000457226.png'
p3922
aS'000000457400.png'
p3923
aS'000000457449.png'
p3924
aS'000000457566.png'
p3925
aS'000000457575.png'
p3926
aS'000000457580.png'
p3927
aS'000000457581.png'
p3928
aS'000000457780.png'
p3929
aS'000000457893.png'
p3930
aS'000000457900.png'
p3931
aS'000000458048.png'
p3932
aS'000000458109.png'
p3933
aS'000000458119.png'
p3934
aS'000000458410.png'
p3935
aS'000000458485.png'
p3936
aS'000000458510.png'
p3937
aS'000000458549.png'
p3938
aS'000000458613.png'
p3939
aS'000000458755.png'
p3940
aS'000000459050.png'
p3941
aS'000000459103.png'
p3942
aS'000000459164.png'
p3943
aS'000000459342.png'
p3944
aS'000000459440.png'
p3945
aS'000000459598.png'
p3946
aS'000000459662.png'
p3947
aS'000000459922.png'
p3948
aS'000000459933.png'
p3949
aS'000000459967.png'
p3950
aS'000000460053.png'
p3951
aS'000000460091.png'
p3952
aS'000000460107.png'
p3953
aS'000000460145.png'
p3954
aS'000000460208.png'
p3955
aS'000000460266.png'
p3956
aS'000000460312.png'
p3957
aS'000000460333.png'
p3958
aS'000000460373.png'
p3959
aS'000000460378.png'
p3960
aS'000000460390.png'
p3961
aS'000000460407.png'
p3962
aS'000000460460.png'
p3963
aS'000000460646.png'
p3964
aS'000000460652.png'
p3965
aS'000000460684.png'
p3966
aS'000000460866.png'
p3967
aS'000000460982.png'
p3968
aS'000000461030.png'
p3969
aS'000000461130.png'
p3970
aS'000000461311.png'
p3971
aS'000000461331.png'
p3972
aS'000000461410.png'
p3973
aS'000000461620.png'
p3974
aS'000000461634.png'
p3975
aS'000000461681.png'
p3976
aS'000000461715.png'
p3977
aS'000000461722.png'
p3978
aS'000000461758.png'
p3979
aS'000000461775.png'
p3980
aS'000000461802.png'
p3981
aS'000000461839.png'
p3982
aS'000000461963.png'
p3983
aS'000000462105.png'
p3984
aS'000000462241.png'
p3985
aS'000000462342.png'
p3986
aS'000000462376.png'
p3987
aS'000000462424.png'
p3988
aS'000000462576.png'
p3989
aS'000000462784.png'
p3990
aS'000000462840.png'
p3991
aS'000000462904.png'
p3992
aS'000000462928.png'
p3993
aS'000000462953.png'
p3994
aS'000000463066.png'
p3995
aS'000000463084.png'
p3996
aS'000000463199.png'
p3997
aS'000000463290.png'
p3998
aS'000000463296.png'
p3999
aS'000000463522.png'
p4000
aS'000000463527.png'
p4001
aS'000000463583.png'
p4002
aS'000000463611.png'
p4003
aS'000000463633.png'
p4004
aS'000000463703.png'
p4005
aS'000000463771.png'
p4006
aS'000000463802.png'
p4007
aS'000000463836.png'
p4008
aS'000000463865.png'
p4009
aS'000000464089.png'
p4010
aS'000000464092.png'
p4011
aS'000000464196.png'
p4012
aS'000000464462.png'
p4013
aS'000000464469.png'
p4014
aS'000000464622.png'
p4015
aS'000000465129.png'
p4016
aS'000000465223.png'
p4017
aS'000000465357.png'
p4018
aS'000000465404.png'
p4019
aS'000000465424.png'
p4020
aS'000000465735.png'
p4021
aS'000000465806.png'
p4022
aS'000000465862.png'
p4023
aS'000000465877.png'
p4024
aS'000000466211.png'
p4025
aS'000000466222.png'
p4026
aS'000000466259.png'
p4027
aS'000000466565.png'
p4028
aS'000000466665.png'
p4029
aS'000000466787.png'
p4030
aS'000000466838.png'
p4031
aS'000000467096.png'
p4032
aS'000000467296.png'
p4033
aS'000000467314.png'
p4034
aS'000000467726.png'
p4035
aS'000000467791.png'
p4036
aS'000000467848.png'
p4037
aS'000000467887.png'
p4038
aS'000000467988.png'
p4039
aS'000000468022.png'
p4040
aS'000000468027.png'
p4041
aS'000000468043.png'
p4042
aS'000000468121.png'
p4043
aS'000000468161.png'
p4044
aS'000000468162.png'
p4045
aS'000000468505.png'
p4046
aS'000000468778.png'
p4047
aS'000000468885.png'
p4048
aS'000000468917.png'
p4049
aS'000000468925.png'
p4050
aS'000000468934.png'
p4051
aS'000000468965.png'
p4052
aS'000000468997.png'
p4053
aS'000000469067.png'
p4054
aS'000000469134.png'
p4055
aS'000000469165.png'
p4056
aS'000000469192.png'
p4057
aS'000000469246.png'
p4058
aS'000000469300.png'
p4059
aS'000000469329.png'
p4060
aS'000000469356.png'
p4061
aS'000000469671.png'
p4062
aS'000000469777.png'
p4063
aS'000000469795.png'
p4064
aS'000000469924.png'
p4065
aS'000000469982.png'
p4066
aS'000000469996.png'
p4067
aS'000000470070.png'
p4068
aS'000000470095.png'
p4069
aS'000000470115.png'
p4070
aS'000000470121.png'
p4071
aS'000000470256.png'
p4072
aS'000000470364.png'
p4073
aS'000000470386.png'
p4074
aS'000000470714.png'
p4075
aS'000000470773.png'
p4076
aS'000000470924.png'
p4077
aS'000000470935.png'
p4078
aS'000000471273.png'
p4079
aS'000000471342.png'
p4080
aS'000000471394.png'
p4081
aS'000000471483.png'
p4082
aS'000000471488.png'
p4083
aS'000000471789.png'
p4084
aS'000000472088.png'
p4085
aS'000000472211.png'
p4086
aS'000000472256.png'
p4087
aS'000000472364.png'
p4088
aS'000000472376.png'
p4089
aS'000000472530.png'
p4090
aS'000000472678.png'
p4091
aS'000000472691.png'
p4092
aS'000000472795.png'
p4093
aS'000000473055.png'
p4094
aS'000000473199.png'
p4095
aS'000000473370.png'
p4096
aS'000000473555.png'
p4097
aS'000000473573.png'
p4098
aS'000000473720.png'
p4099
aS'000000473915.png'
p4100
aS'000000474078.png'
p4101
aS'000000474119.png'
p4102
aS'000000474293.png'
p4103
aS'000000474499.png'
p4104
aS'000000474608.png'
p4105
aS'000000474751.png'
p4106
aS'000000475248.png'
p4107
aS'000000475407.png'
p4108
aS'000000475413.png'
p4109
aS'000000475510.png'
p4110
aS'000000475723.png'
p4111
aS'000000475906.png'
p4112
aS'000000475990.png'
p4113
aS'000000476279.png'
p4114
aS'000000476664.png'
p4115
aS'000000476787.png'
p4116
aS'000000476810.png'
p4117
aS'000000476838.png'
p4118
aS'000000476856.png'
p4119
aS'000000477016.png'
p4120
aS'000000477112.png'
p4121
aS'000000477144.png'
p4122
aS'000000477195.png'
p4123
aS'000000478157.png'
p4124
aS'000000478312.png'
p4125
aS'000000478320.png'
p4126
aS'000000478380.png'
p4127
aS'000000478528.png'
p4128
aS'000000478721.png'
p4129
aS'000000478736.png'
p4130
aS'000000478759.png'
p4131
aS'000000478766.png'
p4132
aS'000000478906.png'
p4133
aS'000000479176.png'
p4134
aS'000000479213.png'
p4135
aS'000000479248.png'
p4136
aS'000000479466.png'
p4137
aS'000000479557.png'
p4138
aS'000000479858.png'
p4139
aS'000000479948.png'
p4140
aS'000000480400.png'
p4141
aS'000000480408.png'
p4142
aS'000000480591.png'
p4143
aS'000000480593.png'
p4144
aS'000000480624.png'
p4145
aS'000000480643.png'
p4146
aS'000000480780.png'
p4147
aS'000000481010.png'
p4148
aS'000000481285.png'
p4149
aS'000000481370.png'
p4150
aS'000000481390.png'
p4151
aS'000000481710.png'
p4152
aS'000000482022.png'
p4153
aS'000000482080.png'
p4154
aS'000000482242.png'
p4155
aS'000000482275.png'
p4156
aS'000000482319.png'
p4157
aS'000000482585.png'
p4158
aS'000000482589.png'
p4159
aS'000000482719.png'
p4160
aS'000000483027.png'
p4161
aS'000000483130.png'
p4162
aS'000000483401.png'
p4163
aS'000000483446.png'
p4164
aS'000000483553.png'
p4165
aS'000000484151.png'
p4166
aS'000000484280.png'
p4167
aS'000000484404.png'
p4168
aS'000000484751.png'
p4169
aS'000000485139.png'
p4170
aS'000000485201.png'
p4171
aS'000000485288.png'
p4172
aS'000000485368.png'
p4173
aS'000000485424.png'
p4174
aS'000000485485.png'
p4175
aS'000000485489.png'
p4176
aS'000000485580.png'
p4177
aS'000000485673.png'
p4178
aS'000000485822.png'
p4179
aS'000000485916.png'
p4180
aS'000000485951.png'
p4181
aS'000000486254.png'
p4182
aS'000000486306.png'
p4183
aS'000000486369.png'
p4184
aS'000000486457.png'
p4185
aS'000000486501.png'
p4186
aS'000000486770.png'
p4187
aS'000000486846.png'
p4188
aS'000000486974.png'
p4189
aS'000000487002.png'
p4190
aS'000000487095.png'
p4191
aS'000000487217.png'
p4192
aS'000000487282.png'
p4193
aS'000000487375.png'
p4194
aS'000000487438.png'
p4195
aS'000000487498.png'
p4196
aS'000000487530.png'
p4197
aS'000000487548.png'
p4198
aS'000000487631.png'
p4199
aS'000000487685.png'
p4200
aS'000000487722.png'
p4201
aS'000000487925.png'
p4202
aS'000000488075.png'
p4203
aS'000000488201.png'
p4204
aS'000000488346.png'
p4205
aS'000000488349.png'
p4206
aS'000000488401.png'
p4207
aS'000000488463.png'
p4208
aS'000000488789.png'
p4209
aS'000000488942.png'
p4210
aS'000000488977.png'
p4211
aS'000000489014.png'
p4212
aS'000000489088.png'
p4213
aS'000000489235.png'
p4214
aS'000000489304.png'
p4215
aS'000000489358.png'
p4216
aS'000000489550.png'
p4217
aS'000000489728.png'
p4218
aS'000000489733.png'
p4219
aS'000000489873.png'
p4220
aS'000000490105.png'
p4221
aS'000000490225.png'
p4222
aS'000000490286.png'
p4223
aS'000000490441.png'
p4224
aS'000000490629.png'
p4225
aS'000000490878.png'
p4226
aS'000000490964.png'
p4227
aS'000000491098.png'
p4228
aS'000000491213.png'
p4229
aS'000000491478.png'
p4230
aS'000000491515.png'
p4231
aS'000000491784.png'
p4232
aS'000000491851.png'
p4233
aS'000000491872.png'
p4234
aS'000000492077.png'
p4235
aS'000000492084.png'
p4236
aS'000000492107.png'
p4237
aS'000000492284.png'
p4238
aS'000000492524.png'
p4239
aS'000000492886.png'
p4240
aS'000000492970.png'
p4241
aS'000000493004.png'
p4242
aS'000000493102.png'
p4243
aS'000000493196.png'
p4244
aS'000000493206.png'
p4245
aS'000000493218.png'
p4246
aS'000000493295.png'
p4247
aS'000000493376.png'
p4248
aS'000000493435.png'
p4249
aS'000000493682.png'
p4250
aS'000000493683.png'
p4251
aS'000000493724.png'
p4252
aS'000000493753.png'
p4253
aS'000000493774.png'
p4254
aS'000000493932.png'
p4255
aS'000000494144.png'
p4256
aS'000000494345.png'
p4257
aS'000000494456.png'
p4258
aS'000000494580.png'
p4259
aS'000000494634.png'
p4260
aS'000000494679.png'
p4261
aS'000000494759.png'
p4262
aS'000000494810.png'
p4263
aS'000000494870.png'
p4264
aS'000000494887.png'
p4265
aS'000000494957.png'
p4266
aS'000000495020.png'
p4267
aS'000000495146.png'
p4268
aS'000000495311.png'
p4269
aS'000000495377.png'
p4270
aS'000000495456.png'
p4271
aS'000000495513.png'
p4272
aS'000000495557.png'
p4273
aS'000000495680.png'
p4274
aS'000000495808.png'
p4275
aS'000000495980.png'
p4276
aS'000000496081.png'
p4277
aS'000000496252.png'
p4278
aS'000000496324.png'
p4279
aS'000000496379.png'
p4280
aS'000000496618.png'
p4281
aS'000000496854.png'
p4282
aS'000000496897.png'
p4283
aS'000000496954.png'
p4284
aS'000000497002.png'
p4285
aS'000000497031.png'
p4286
aS'000000497049.png'
p4287
aS'000000497365.png'
p4288
aS'000000497466.png'
p4289
aS'000000497488.png'
p4290
aS'000000497504.png'
p4291
aS'000000497593.png'
p4292
aS'000000497640.png'
p4293
aS'000000497660.png'
p4294
aS'000000497801.png'
p4295
aS'000000498061.png'
p4296
aS'000000498286.png'
p4297
aS'000000498319.png'
p4298
aS'000000498547.png'
p4299
aS'000000498641.png'
p4300
aS'000000498747.png'
p4301
aS'000000498931.png'
p4302
aS'000000499134.png'
p4303
aS'000000499181.png'
p4304
aS'000000499266.png'
p4305
aS'000000499480.png'
p4306
aS'000000499594.png'
p4307
aS'000000499597.png'
p4308
aS'000000499646.png'
p4309
aS'000000499810.png'
p4310
aS'000000499866.png'
p4311
aS'000000500680.png'
p4312
aS'000000500940.png'
p4313
aS'000000501281.png'
p4314
aS'000000501294.png'
p4315
aS'000000501443.png'
p4316
aS'000000501491.png'
p4317
aS'000000501523.png'
p4318
aS'000000501652.png'
p4319
aS'000000501665.png'
p4320
aS'000000501982.png'
p4321
aS'000000502001.png'
p4322
aS'000000502220.png'
p4323
aS'000000502963.png'
p4324
aS'000000502979.png'
p4325
aS'000000503101.png'
p4326
aS'000000503135.png'
p4327
aS'000000503202.png'
p4328
aS'000000503210.png'
p4329
aS'000000503772.png'
p4330
aS'000000503826.png'
p4331
aS'000000503837.png'
p4332
aS'000000503978.png'
p4333
aS'000000504005.png'
p4334
aS'000000504194.png'
p4335
aS'000000504224.png'
p4336
aS'000000504248.png'
p4337
aS'000000504353.png'
p4338
aS'000000504621.png'
p4339
aS'000000504670.png'
p4340
aS'000000504958.png'
p4341
aS'000000505043.png'
p4342
aS'000000505455.png'
p4343
aS'000000505709.png'
p4344
aS'000000505818.png'
p4345
aS'000000505822.png'
p4346
aS'000000505845.png'
p4347
aS'000000505899.png'
p4348
aS'000000505934.png'
p4349
aS'000000506115.png'
p4350
aS'000000506311.png'
p4351
aS'000000506401.png'
p4352
aS'000000506454.png'
p4353
aS'000000506515.png'
p4354
aS'000000506656.png'
p4355
aS'000000506717.png'
p4356
aS'000000506723.png'
p4357
aS'000000506803.png'
p4358
aS'000000506933.png'
p4359
aS'000000507037.png'
p4360
aS'000000507080.png'
p4361
aS'000000507154.png'
p4362
aS'000000507330.png'
p4363
aS'000000507473.png'
p4364
aS'000000507575.png'
p4365
aS'000000507975.png'
p4366
aS'000000508101.png'
p4367
aS'000000508440.png'
p4368
aS'000000508514.png'
p4369
aS'000000508656.png'
p4370
aS'000000508899.png'
p4371
aS'000000508949.png'
p4372
aS'000000508950.png'
p4373
aS'000000509020.png'
p4374
aS'000000509416.png'
p4375
aS'000000510150.png'
p4376
aS'000000510329.png'
p4377
aS'000000510358.png'
p4378
aS'000000510651.png'
p4379
aS'000000510681.png'
p4380
aS'000000510707.png'
p4381
aS'000000510798.png'
p4382
aS'000000510992.png'
p4383
aS'000000511002.png'
p4384
aS'000000511050.png'
p4385
aS'000000511241.png'
p4386
aS'000000511594.png'
p4387
aS'000000511599.png'
p4388
aS'000000511658.png'
p4389
aS'000000511674.png'
p4390
aS'000000511777.png'
p4391
aS'000000512116.png'
p4392
aS'000000512302.png'
p4393
aS'000000512416.png'
p4394
aS'000000512442.png'
p4395
aS'000000512451.png'
p4396
aS'000000512576.png'
p4397
aS'000000512793.png'
p4398
aS'000000512869.png'
p4399
aS'000000512989.png'
p4400
aS'000000513041.png'
p4401
aS'000000513054.png'
p4402
aS'000000513136.png'
p4403
aS'000000513567.png'
p4404
aS'000000513688.png'
p4405
aS'000000513993.png'
p4406
aS'000000514049.png'
p4407
aS'000000514083.png'
p4408
aS'000000514376.png'
p4409
aS'000000514417.png'
p4410
aS'000000514504.png'
p4411
aS'000000514604.png'
p4412
aS'000000514682.png'
p4413
aS'000000514860.png'
p4414
aS'000000515226.png'
p4415
aS'000000515247.png'
p4416
aS'000000515660.png'
p4417
aS'000000515716.png'
p4418
aS'000000515777.png'
p4419
aS'000000515876.png'
p4420
aS'000000516244.png'
p4421
aS'000000516372.png'
p4422
aS'000000516677.png'
p4423
aS'000000516786.png'
p4424
aS'000000516805.png'
p4425
aS'000000516856.png'
p4426
aS'000000516916.png'
p4427
aS'000000517056.png'
p4428
aS'000000517069.png'
p4429
aS'000000517081.png'
p4430
aS'000000517296.png'
p4431
aS'000000517306.png'
p4432
aS'000000518383.png'
p4433
aS'000000518592.png'
p4434
aS'000000518721.png'
p4435
aS'000000518873.png'
p4436
aS'000000519193.png'
p4437
aS'000000519271.png'
p4438
aS'000000519460.png'
p4439
aS'000000519649.png'
p4440
aS'000000519673.png'
p4441
aS'000000519815.png'
p4442
aS'000000520043.png'
p4443
aS'000000520264.png'
p4444
aS'000000520427.png'
p4445
aS'000000520524.png'
p4446
aS'000000520531.png'
p4447
aS'000000520659.png'
p4448
aS'000000520707.png'
p4449
aS'000000520832.png'
p4450
aS'000000520892.png'
p4451
aS'000000520982.png'
p4452
aS'000000521008.png'
p4453
aS'000000521359.png'
p4454
aS'000000521540.png'
p4455
aS'000000521819.png'
p4456
aS'000000522007.png'
p4457
aS'000000522015.png'
p4458
aS'000000522262.png'
p4459
aS'000000522380.png'
p4460
aS'000000522418.png'
p4461
aS'000000522713.png'
p4462
aS'000000522778.png'
p4463
aS'000000522782.png'
p4464
aS'000000522791.png'
p4465
aS'000000522935.png'
p4466
aS'000000523096.png'
p4467
aS'000000523195.png'
p4468
aS'000000523371.png'
p4469
aS'000000523373.png'
p4470
aS'000000523454.png'
p4471
aS'000000523517.png'
p4472
aS'000000523527.png'
p4473
aS'000000523677.png'
p4474
aS'000000523782.png'
p4475
aS'000000523869.png'
p4476
aS'000000523871.png'
p4477
aS'000000523955.png'
p4478
aS'000000524187.png'
p4479
aS'000000524282.png'
p4480
aS'000000524333.png'
p4481
aS'000000524373.png'
p4482
aS'000000524431.png'
p4483
aS'000000524456.png'
p4484
aS'000000524656.png'
p4485
aS'000000524822.png'
p4486
aS'000000524957.png'
p4487
aS'000000524992.png'
p4488
aS'000000525024.png'
p4489
aS'000000525087.png'
p4490
aS'000000525208.png'
p4491
aS'000000525272.png'
p4492
aS'000000525371.png'
p4493
aS'000000525373.png'
p4494
aS'000000525376.png'
p4495
aS'000000525587.png'
p4496
aS'000000525619.png'
p4497
aS'000000525667.png'
p4498
aS'000000525860.png'
p4499
aS'000000526028.png'
p4500
aS'000000526103.png'
p4501
aS'000000526186.png'
p4502
aS'000000526188.png'
p4503
aS'000000526257.png'
p4504
aS'000000526342.png'
p4505
aS'000000526353.png'
p4506
aS'000000526359.png'
p4507
aS'000000526364.png'
p4508
aS'000000526394.png'
p4509
aS'000000526732.png'
p4510
aS'000000526800.png'
p4511
aS'000000526904.png'
p4512
aS'000000527022.png'
p4513
aS'000000527054.png'
p4514
aS'000000527064.png'
p4515
aS'000000527260.png'
p4516
aS'000000527374.png'
p4517
aS'000000527427.png'
p4518
aS'000000527440.png'
p4519
aS'000000527445.png'
p4520
aS'000000527464.png'
p4521
aS'000000527476.png'
p4522
aS'000000527497.png'
p4523
aS'000000527528.png'
p4524
aS'000000527578.png'
p4525
aS'000000527733.png'
p4526
aS'000000527845.png'
p4527
aS'000000527846.png'
p4528
aS'000000527961.png'
p4529
aS'000000527995.png'
p4530
aS'000000528084.png'
p4531
aS'000000528098.png'
p4532
aS'000000528136.png'
p4533
aS'000000528201.png'
p4534
aS'000000528251.png'
p4535
aS'000000528257.png'
p4536
aS'000000528311.png'
p4537
aS'000000528386.png'
p4538
aS'000000528411.png'
p4539
aS'000000528729.png'
p4540
aS'000000528866.png'
p4541
aS'000000528875.png'
p4542
aS'000000528984.png'
p4543
aS'000000529041.png'
p4544
aS'000000529083.png'
p4545
aS'000000529151.png'
p4546
aS'000000529234.png'
p4547
aS'000000529355.png'
p4548
aS'000000529631.png'
p4549
aS'000000529762.png'
p4550
aS'000000529838.png'
p4551
aS'000000529944.png'
p4552
aS'000000530259.png'
p4553
aS'000000530317.png'
p4554
aS'000000530466.png'
p4555
aS'000000530500.png'
p4556
aS'000000530952.png'
p4557
aS'000000530975.png'
p4558
aS'000000530987.png'
p4559
aS'000000531134.png'
p4560
aS'000000531178.png'
p4561
aS'000000531286.png'
p4562
aS'000000531510.png'
p4563
aS'000000531532.png'
p4564
aS'000000531585.png'
p4565
aS'000000531784.png'
p4566
aS'000000531798.png'
p4567
aS'000000531917.png'
p4568
aS'000000531967.png'
p4569
aS'000000532003.png'
p4570
aS'000000532058.png'
p4571
aS'000000532142.png'
p4572
aS'000000532164.png'
p4573
aS'000000532761.png'
p4574
aS'000000532976.png'
p4575
aS'000000532983.png'
p4576
aS'000000533003.png'
p4577
aS'000000533039.png'
p4578
aS'000000533069.png'
p4579
aS'000000533378.png'
p4580
aS'000000533408.png'
p4581
aS'000000533532.png'
p4582
aS'000000533548.png'
p4583
aS'000000533589.png'
p4584
aS'000000533721.png'
p4585
aS'000000534018.png'
p4586
aS'000000534121.png'
p4587
aS'000000534271.png'
p4588
aS'000000534444.png'
p4589
aS'000000534467.png'
p4590
aS'000000534659.png'
p4591
aS'000000534669.png'
p4592
aS'000000534734.png'
p4593
aS'000000535013.png'
p4594
aS'000000535080.png'
p4595
aS'000000535151.png'
p4596
aS'000000535183.png'
p4597
aS'000000535569.png'
p4598
aS'000000535579.png'
p4599
aS'000000535889.png'
p4600
aS'000000535902.png'
p4601
aS'000000535934.png'
p4602
aS'000000536034.png'
p4603
aS'000000536321.png'
p4604
aS'000000536403.png'
p4605
aS'000000536708.png'
p4606
aS'000000536720.png'
p4607
aS'000000536933.png'
p4608
aS'000000536947.png'
p4609
aS'000000537081.png'
p4610
aS'000000537270.png'
p4611
aS'000000537280.png'
p4612
aS'000000537548.png'
p4613
aS'000000537604.png'
p4614
aS'000000537611.png'
p4615
aS'000000537631.png'
p4616
aS'000000537991.png'
p4617
aS'000000538054.png'
p4618
aS'000000538230.png'
p4619
aS'000000538364.png'
p4620
aS'000000538844.png'
p4621
aS'000000538858.png'
p4622
aS'000000538934.png'
p4623
aS'000000539419.png'
p4624
aS'000000539683.png'
p4625
aS'000000539787.png'
p4626
aS'000000539808.png'
p4627
aS'000000539962.png'
p4628
aS'000000540159.png'
p4629
aS'000000540172.png'
p4630
aS'000000540253.png'
p4631
aS'000000540414.png'
p4632
aS'000000540636.png'
p4633
aS'000000540697.png'
p4634
aS'000000540860.png'
p4635
aS'000000541018.png'
p4636
aS'000000541132.png'
p4637
aS'000000541279.png'
p4638
aS'000000541493.png'
p4639
aS'000000541613.png'
p4640
aS'000000541773.png'
p4641
aS'000000542079.png'
p4642
aS'000000542205.png'
p4643
aS'000000542509.png'
p4644
aS'000000542625.png'
p4645
aS'000000542910.png'
p4646
aS'000000543043.png'
p4647
aS'000000543047.png'
p4648
aS'000000543231.png'
p4649
aS'000000543264.png'
p4650
aS'000000543330.png'
p4651
aS'000000543347.png'
p4652
aS'000000543547.png'
p4653
aS'000000543570.png'
p4654
aS'000000543706.png'
p4655
aS'000000543740.png'
p4656
aS'000000543836.png'
p4657
aS'000000543961.png'
p4658
aS'000000544121.png'
p4659
aS'000000544216.png'
p4660
aS'000000544299.png'
p4661
aS'000000544522.png'
p4662
aS'000000544574.png'
p4663
aS'000000544611.png'
p4664
aS'000000544782.png'
p4665
aS'000000544876.png'
p4666
aS'000000545002.png'
p4667
aS'000000545219.png'
p4668
aS'000000545250.png'
p4669
aS'000000545363.png'
p4670
aS'000000545385.png'
p4671
aS'000000545734.png'
p4672
aS'000000545867.png'
p4673
aS'000000545959.png'
p4674
aS'000000546029.png'
p4675
aS'000000546052.png'
p4676
aS'000000546229.png'
p4677
aS'000000546378.png'
p4678
aS'000000546428.png'
p4679
aS'000000546463.png'
p4680
aS'000000546569.png'
p4681
aS'000000546792.png'
p4682
aS'000000546823.png'
p4683
aS'000000546896.png'
p4684
aS'000000546928.png'
p4685
aS'000000547041.png'
p4686
aS'000000547144.png'
p4687
aS'000000547212.png'
p4688
aS'000000547293.png'
p4689
aS'000000547300.png'
p4690
aS'000000547309.png'
p4691
aS'000000547336.png'
p4692
aS'000000547493.png'
p4693
aS'000000547798.png'
p4694
aS'000000547839.png'
p4695
aS'000000547875.png'
p4696
aS'000000548011.png'
p4697
aS'000000548164.png'
p4698
aS'000000548336.png'
p4699
aS'000000548420.png'
p4700
aS'000000548423.png'
p4701
aS'000000548670.png'
p4702
aS'000000548703.png'
p4703
aS'000000548713.png'
p4704
aS'000000548882.png'
p4705
aS'000000548962.png'
p4706
aS'000000549063.png'
p4707
aS'000000549109.png'
p4708
aS'000000549224.png'
p4709
aS'000000549230.png'
p4710
aS'000000549427.png'
p4711
aS'000000549448.png'
p4712
aS'000000549508.png'
p4713
aS'000000549674.png'
p4714
aS'000000549943.png'
p4715
aS'000000550405.png'
p4716
aS'000000550514.png'
p4717
aS'000000550601.png'
p4718
aS'000000550691.png'
p4719
aS'000000550707.png'
p4720
aS'000000550815.png'
p4721
aS'000000551018.png'
p4722
aS'000000551129.png'
p4723
aS'000000551199.png'
p4724
aS'000000551334.png'
p4725
aS'000000551336.png'
p4726
aS'000000551713.png'
p4727
aS'000000551791.png'
p4728
aS'000000551794.png'
p4729
aS'000000551811.png'
p4730
aS'000000551881.png'
p4731
aS'000000551921.png'
p4732
aS'000000551952.png'
p4733
aS'000000551974.png'
p4734
aS'000000552364.png'
p4735
aS'000000552377.png'
p4736
aS'000000552610.png'
p4737
aS'000000552636.png'
p4738
aS'000000552945.png'
p4739
aS'000000553561.png'
p4740
aS'000000553669.png'
p4741
aS'000000553879.png'
p4742
aS'000000554037.png'
p4743
aS'000000554433.png'
p4744
aS'000000554445.png'
p4745
aS'000000554607.png'
p4746
aS'000000554828.png'
p4747
aS'000000555005.png'
p4748
aS'000000555048.png'
p4749
aS'000000555131.png'
p4750
aS'000000555356.png'
p4751
aS'000000555582.png'
p4752
aS'000000555648.png'
p4753
aS'000000555848.png'
p4754
aS'000000555898.png'
p4755
aS'000000555904.png'
p4756
aS'000000555905.png'
p4757
aS'000000555953.png'
p4758
aS'000000556073.png'
p4759
aS'000000556120.png'
p4760
aS'000000556420.png'
p4761
aS'000000556462.png'
p4762
aS'000000556597.png'
p4763
aS'000000556703.png'
p4764
aS'000000556758.png'
p4765
aS'000000556980.png'
p4766
aS'000000557117.png'
p4767
aS'000000557150.png'
p4768
aS'000000557163.png'
p4769
aS'000000557172.png'
p4770
aS'000000557324.png'
p4771
aS'000000557517.png'
p4772
aS'000000557552.png'
p4773
aS'000000557633.png'
p4774
aS'000000557679.png'
p4775
aS'000000557780.png'
p4776
aS'000000557923.png'
p4777
aS'000000557926.png'
p4778
aS'000000557977.png'
p4779
aS'000000558013.png'
p4780
aS'000000558114.png'
p4781
aS'000000558171.png'
p4782
aS'000000558234.png'
p4783
aS'000000558449.png'
p4784
aS'000000558457.png'
p4785
aS'000000558483.png'
p4786
aS'000000558498.png'
p4787
aS'000000558539.png'
p4788
aS'000000558558.png'
p4789
aS'000000558587.png'
p4790
aS'000000558608.png'
p4791
aS'000000558633.png'
p4792
aS'000000558635.png'
p4793
aS'000000558645.png'
p4794
aS'000000558671.png'
p4795
aS'000000558677.png'
p4796
aS'000000558864.png'
p4797
aS'000000558992.png'
p4798
aS'000000559247.png'
p4799
aS'000000559277.png'
p4800
aS'000000559312.png'
p4801
aS'000000559348.png'
p4802
aS'000000559364.png'
p4803
aS'000000559440.png'
p4804
aS'000000559550.png'
p4805
aS'000000559837.png'
p4806
aS'000000559950.png'
p4807
aS'000000559956.png'
p4808
aS'000000560010.png'
p4809
aS'000000560178.png'
p4810
aS'000000560222.png'
p4811
aS'000000560256.png'
p4812
aS'000000560298.png'
p4813
aS'000000560365.png'
p4814
aS'000000560470.png'
p4815
aS'000000560474.png'
p4816
aS'000000560721.png'
p4817
aS'000000560744.png'
p4818
aS'000000560756.png'
p4819
aS'000000561004.png'
p4820
aS'000000561116.png'
p4821
aS'000000561128.png'
p4822
aS'000000561336.png'
p4823
aS'000000561366.png'
p4824
aS'000000561393.png'
p4825
aS'000000561403.png'
p4826
aS'000000561619.png'
p4827
aS'000000561745.png'
p4828
aS'000000561780.png'
p4829
aS'000000561783.png'
p4830
aS'000000561889.png'
p4831
aS'000000561958.png'
p4832
aS'000000562084.png'
p4833
aS'000000562289.png'
p4834
aS'000000562557.png'
p4835
aS'000000562622.png'
p4836
aS'000000562632.png'
p4837
aS'000000562803.png'
p4838
aS'000000562818.png'
p4839
aS'000000562856.png'
p4840
aS'000000562906.png'
p4841
aS'000000563009.png'
p4842
aS'000000563056.png'
p4843
aS'000000563067.png'
p4844
aS'000000563403.png'
p4845
aS'000000563615.png'
p4846
aS'000000563871.png'
p4847
aS'000000563909.png'
p4848
aS'000000564129.png'
p4849
aS'000000564166.png'
p4850
aS'000000564197.png'
p4851
aS'000000564352.png'
p4852
aS'000000564489.png'
p4853
aS'000000564572.png'
p4854
aS'000000564612.png'
p4855
aS'000000564629.png'
p4856
aS'000000564743.png'
p4857
aS'000000564820.png'
p4858
aS'000000564830.png'
p4859
aS'000000564934.png'
p4860
aS'000000564936.png'
p4861
aS'000000565031.png'
p4862
aS'000000565034.png'
p4863
aS'000000565043.png'
p4864
aS'000000565085.png'
p4865
aS'000000565395.png'
p4866
aS'000000565405.png'
p4867
aS'000000565479.png'
p4868
aS'000000565485.png'
p4869
aS'000000565563.png'
p4870
aS'000000565575.png'
p4871
aS'000000565582.png'
p4872
aS'000000565635.png'
p4873
aS'000000565693.png'
p4874
aS'000000565781.png'
p4875
aS'000000566049.png'
p4876
aS'000000566324.png'
p4877
aS'000000566364.png'
p4878
aS'000000566502.png'
p4879
aS'000000566576.png'
p4880
aS'000000566651.png'
p4881
aS'000000566672.png'
p4882
aS'000000566941.png'
p4883
aS'000000567118.png'
p4884
aS'000000567205.png'
p4885
aS'000000567494.png'
p4886
aS'000000567535.png'
p4887
aS'000000567636.png'
p4888
aS'000000567708.png'
p4889
aS'000000567740.png'
p4890
aS'000000567881.png'
p4891
aS'000000568004.png'
p4892
aS'000000568041.png'
p4893
aS'000000568115.png'
p4894
aS'000000568132.png'
p4895
aS'000000568281.png'
p4896
aS'000000568398.png'
p4897
aS'000000568426.png'
p4898
aS'000000568879.png'
p4899
aS'000000569001.png'
p4900
aS'000000569059.png'
p4901
aS'000000569251.png'
p4902
aS'000000569274.png'
p4903
aS'000000569319.png'
p4904
aS'000000569450.png'
p4905
aS'000000569543.png'
p4906
aS'000000569618.png'
p4907
aS'000000569722.png'
p4908
aS'000000569801.png'
p4909
aS'000000569900.png'
p4910
aS'000000570022.png'
p4911
aS'000000570179.png'
p4912
aS'000000570456.png'
p4913
aS'000000570465.png'
p4914
aS'000000570515.png'
p4915
aS'000000570548.png'
p4916
aS'000000570659.png'
p4917
aS'000000570688.png'
p4918
aS'000000570773.png'
p4919
aS'000000570810.png'
p4920
aS'000000570952.png'
p4921
aS'000000570981.png'
p4922
aS'000000571279.png'
p4923
aS'000000571450.png'
p4924
aS'000000571544.png'
p4925
aS'000000571598.png'
p4926
aS'000000572260.png'
p4927
aS'000000572453.png'
p4928
aS'000000572499.png'
p4929
aS'000000572790.png'
p4930
aS'000000572825.png'
p4931
aS'000000572900.png'
p4932
aS'000000573258.png'
p4933
aS'000000573300.png'
p4934
aS'000000573320.png'
p4935
aS'000000573349.png'
p4936
aS'000000573605.png'
p4937
aS'000000573750.png'
p4938
aS'000000573753.png'
p4939
aS'000000573930.png'
p4940
aS'000000573935.png'
p4941
aS'000000574108.png'
p4942
aS'000000574145.png'
p4943
aS'000000574250.png'
p4944
aS'000000574315.png'
p4945
aS'000000574332.png'
p4946
aS'000000574350.png'
p4947
aS'000000574424.png'
p4948
aS'000000574675.png'
p4949
aS'000000574845.png'
p4950
aS'000000575051.png'
p4951
aS'000000575135.png'
p4952
aS'000000575367.png'
p4953
aS'000000575441.png'
p4954
aS'000000575719.png'
p4955
aS'000000575834.png'
p4956
aS'000000575915.png'
p4957
aS'000000575970.png'
p4958
aS'000000576222.png'
p4959
aS'000000577077.png'
p4960
aS'000000577128.png'
p4961
aS'000000577169.png'
p4962
aS'000000577614.png'
p4963
aS'000000577654.png'
p4964
aS'000000577783.png'
p4965
aS'000000577858.png'
p4966
aS'000000577877.png'
p4967
aS'000000577924.png'
p4968
aS'000000577995.png'
p4969
aS'000000578107.png'
p4970
aS'000000578210.png'
p4971
aS'000000578225.png'
p4972
aS'000000578324.png'
p4973
aS'000000578343.png'
p4974
aS'000000578347.png'
p4975
aS'000000578391.png'
p4976
aS'000000578489.png'
p4977
aS'000000578498.png'
p4978
aS'000000578524.png'
p4979
aS'000000578813.png'
p4980
aS'000000578848.png'
p4981
aS'000000578962.png'
p4982
aS'000000578974.png'
p4983
aS'000000579158.png'
p4984
aS'000000579226.png'
p4985
aS'000000579303.png'
p4986
aS'000000579648.png'
p4987
aS'000000579666.png'
p4988
aS'000000579815.png'
p4989
aS'000000579822.png'
p4990
aS'000000580248.png'
p4991
aS'000000580388.png'
p4992
aS'000000580555.png'
p4993
aS'000000580607.png'
p4994
aS'000000580704.png'
p4995
aS'000000580953.png'
p4996
aS'000000581415.png'
p4997
aS'000000581451.png'
p4998
aS'000000581501.png'
p4999
aS'000000581593.png'
p5000
aS'000000581887.png'
p5001
aS'000000581899.png'
p5002
asS'SALICON_id'
p5003
(lp5004
I133
aI164
aI192
aI196
aI208
aI257
aI387
aI397
aI520
aI569
aI589
aI675
aI692
aI711
aI715
aI761
aI810
aI939
aI987
aI1000
aI1270
aI1342
aI1369
aI1532
aI1561
aI1573
aI1599
aI1668
aI1675
aI1700
aI1799
aI2006
aI2124
aI2153
aI2154
aI2179
aI2302
aI2346
aI2434
aI2640
aI2822
aI2839
aI3001
aI3067
aI3091
aI3093
aI3192
aI3326
aI3580
aI3590
aI3716
aI3742
aI3779
aI3786
aI3983
aI4265
aI4296
aI4795
aI4988
aI5001
aI5038
aI5105
aI5107
aI5282
aI5385
aI5535
aI5599
aI5617
aI5713
aI5816
aI5965
aI6580
aI6608
aI6701
aI6712
aI7274
aI7298
aI7414
aI7511
aI7519
aI7570
aI7574
aI7726
aI7938
aI8005
aI8021
aI8119
aI8204
aI8333
aI8583
aI8594
aI8599
aI8665
aI8711
aI9002
aI9156
aI9175
aI9236
aI9400
aI9483
aI9527
aI9769
aI9891
aI9914
aI10138
aI10216
aI10393
aI10705
aI10707
aI11291
aI11305
aI11360
aI11494
aI11696
aI11796
aI11887
aI11987
aI12085
aI12209
aI12230
aI12238
aI12375
aI12443
aI12700
aI12764
aI12818
aI12991
aI13081
aI13383
aI13490
aI13659
aI13729
aI13943
aI14108
aI14226
aI14248
aI14297
aI14353
aI14494
aI14635
aI14713
aI15017
aI15157
aI15335
aI15345
aI15497
aI15725
aI15846
aI15850
aI15947
aI15956
aI16382
aI16439
aI16593
aI16775
aI16896
aI16961
aI16977
aI17018
aI17095
aI17207
aI17282
aI17311
aI17313
aI17350
aI17425
aI17482
aI17627
aI17667
aI17708
aI17714
aI18150
aI18193
aI18224
aI18442
aI18575
aI18687
aI18699
aI18837
aI18903
aI18918
aI19132
aI19158
aI19176
aI19292
aI19432
aI19456
aI19523
aI19544
aI19624
aI19631
aI19763
aI20038
aI20161
aI20268
aI20273
aI20334
aI20410
aI20485
aI20641
aI20646
aI20650
aI20671
aI20748
aI20784
aI20925
aI20979
aI21503
aI21639
aI21971
aI21979
aI22072
aI22118
aI22129
aI22158
aI22199
aI22271
aI22446
aI22474
aI22671
aI23121
aI23201
aI23320
aI23807
aI24061
aI24104
aI24112
aI24223
aI24243
aI24396
aI24553
aI24610
aI24693
aI24880
aI25123
aI25282
aI25393
aI25521
aI25550
aI25560
aI25595
aI25603
aI25853
aI25860
aI25986
aI25997
aI26363
aI26611
aI26730
aI26768
aI26992
aI27478
aI27493
aI27519
aI27578
aI27620
aI27642
aI27656
aI27789
aI27975
aI28273
aI28540
aI28675
aI28682
aI28719
aI28874
aI29059
aI30534
aI30657
aI30706
aI30785
aI31519
aI31569
aI31636
aI31735
aI31773
aI31796
aI32001
aI32300
aI32334
aI32777
aI32887
aI32907
aI32965
aI33008
aI33073
aI33109
aI33114
aI33116
aI33345
aI33377
aI33489
aI33645
aI33652
aI33717
aI33835
aI33904
aI34114
aI34139
aI34196
aI34438
aI34445
aI34452
aI34464
aI34471
aI34500
aI34580
aI34582
aI34657
aI34701
aI34786
aI34820
aI34873
aI34950
aI35176
aI35269
aI35326
aI35429
aI35435
aI35711
aI35726
aI35825
aI35891
aI35894
aI35975
aI36077
aI36460
aI36492
aI36508
aI36614
aI36661
aI36810
aI36844
aI37017
aI37367
aI37403
aI37615
aI37616
aI37670
aI37671
aI37688
aI37709
aI37729
aI37740
aI37751
aI37988
aI38034
aI38073
aI38186
aI38439
aI38540
aI38769
aI38817
aI38865
aI38875
aI39081
aI39405
aI39589
aI39663
aI39718
aI39769
aI39811
aI39852
aI40426
aI40497
aI40602
aI40681
aI41110
aI41247
aI41279
aI41507
aI41603
aI41923
aI42091
aI42260
aI42399
aI42408
aI42482
aI42492
aI42641
aI42953
aI43092
aI43170
aI43243
aI43261
aI43286
aI43305
aI43345
aI43375
aI43561
aI43670
aI43673
aI43851
aI43944
aI43961
aI44054
aI44136
aI44171
aI44263
aI44269
aI44347
aI44621
aI44934
aI44950
aI45094
aI45197
aI45229
aI45248
aI45406
aI45463
aI45550
aI45594
aI45721
aI45746
aI45775
aI45844
aI46031
aI46048
aI46101
aI46252
aI46775
aI47112
aI47121
aI47225
aI47263
aI47361
aI47511
aI47603
aI47775
aI47916
aI48281
aI48475
aI48684
aI48905
aI49165
aI49194
aI49731
aI49985
aI50006
aI50099
aI50148
aI50350
aI50354
aI50411
aI50422
aI50485
aI50514
aI50561
aI50627
aI50752
aI50828
aI50942
aI51025
aI51028
aI51143
aI51167
aI51203
aI51376
aI51500
aI51628
aI51702
aI52232
aI52238
aI52282
aI52290
aI52435
aI52546
aI52644
aI52664
aI52835
aI52982
aI53263
aI53328
aI53629
aI53697
aI53802
aI54039
aI54091
aI54092
aI54252
aI54337
aI54355
aI54358
aI54517
aI54533
aI54598
aI54870
aI55017
aI55429
aI55466
aI55467
aI55528
aI55768
aI55868
aI56002
aI56070
aI56129
aI56288
aI56326
aI56344
aI56430
aI56433
aI56567
aI56724
aI56752
aI56960
aI57363
aI57508
aI57542
aI57672
aI57827
aI57878
aI57904
aI58254
aI58304
aI58344
aI58350
aI58569
aI58690
aI58886
aI58937
aI59000
aI59015
aI59201
aI59328
aI59383
aI59455
aI59598
aI59666
aI59710
aI59744
aI59774
aI60125
aI60128
aI60448
aI60641
aI60823
aI60835
aI61108
aI61171
aI61315
aI61471
aI61507
aI61520
aI61647
aI61693
aI61735
aI61899
aI62023
aI62251
aI62491
aI62510
aI62703
aI63328
aI63525
aI63740
aI63939
aI64015
aI64121
aI64196
aI64510
aI64621
aI64703
aI64909
aI65001
aI65008
aI65258
aI65358
aI65567
aI65604
aI65798
aI65948
aI66001
aI66038
aI66072
aI66239
aI66397
aI66468
aI66568
aI66632
aI66635
aI66675
aI66685
aI66717
aI66769
aI66771
aI66827
aI67018
aI67065
aI67106
aI67122
aI67207
aI67255
aI67412
aI67616
aI67757
aI67788
aI67833
aI67956
aI67975
aI68005
aI68059
aI68093
aI68114
aI68128
aI68300
aI68387
aI68418
aI68435
aI68525
aI68765
aI68771
aI68814
aI68833
aI68881
aI69000
aI69015
aI69140
aI69293
aI69366
aI69536
aI69544
aI69668
aI69750
aI69827
aI69906
aI69914
aI70048
aI70190
aI70478
aI70657
aI70987
aI71136
aI71171
aI71302
aI71563
aI71826
aI71929
aI71938
aI72315
aI72376
aI72536
aI72582
aI72657
aI72795
aI72810
aI72813
aI72944
aI73209
aI73256
aI73326
aI73470
aI73753
aI73861
aI73973
aI74001
aI74209
aI74256
aI74412
aI74638
aI75006
aI75023
aI75183
aI75285
aI75327
aI75372
aI75527
aI75563
aI75612
aI75696
aI75806
aI76384
aI76416
aI76468
aI76518
aI76547
aI76588
aI76595
aI76619
aI76625
aI76844
aI76942
aI76994
aI77050
aI77396
aI77415
aI77615
aI77648
aI77681
aI77811
aI77889
aI77951
aI78060
aI78176
aI78188
aI78420
aI78478
aI78537
aI78696
aI78748
aI78823
aI79860
aI79906
aI79955
aI80104
aI80131
aI80698
aI80714
aI80895
aI81035
aI81054
aI81079
aI81210
aI81228
aI81248
aI81287
aI81315
aI81394
aI81661
aI81738
aI81812
aI81998
aI82174
aI82263
aI82338
aI82456
aI82468
aI82554
aI82668
aI82787
aI82889
aI83036
aI83283
aI83462
aI83761
aI83844
aI83850
aI83925
aI84170
aI84270
aI84362
aI84442
aI84540
aI84592
aI84650
aI84694
aI84866
aI85029
aI85157
aI85183
aI85195
aI85340
aI85390
aI85556
aI85632
aI85795
aI85814
aI85826
aI85940
aI86011
aI86135
aI86426
aI86429
aI86516
aI86646
aI86650
aI86755
aI86884
aI87038
aI87144
aI87383
aI87393
aI87429
aI87456
aI87588
aI87740
aI87998
aI88031
aI88183
aI88244
aI88252
aI88269
aI88349
aI88436
aI88513
aI88562
aI89210
aI89359
aI89362
aI89378
aI89556
aI89589
aI89743
aI90020
aI90108
aI90138
aI90373
aI90432
aI90616
aI90645
aI90659
aI90707
aI90787
aI90804
aI91045
aI91080
aI91263
aI91283
aI91318
aI91326
aI91500
aI91617
aI91654
aI91779
aI91883
aI91909
aI92091
aI92131
aI92134
aI92462
aI92519
aI92602
aI92683
aI92765
aI92801
aI92815
aI92998
aI93314
aI93353
aI93476
aI93620
aI93763
aI93893
aI93948
aI94052
aI94379
aI94422
aI94651
aI95062
aI95227
aI95251
aI95297
aI95375
aI96043
aI96048
aI96110
aI96207
aI96215
aI96226
aI96288
aI96306
aI96351
aI96539
aI96832
aI97036
aI97146
aI97240
aI97264
aI97379
aI97479
aI97561
aI97579
aI97679
aI97693
aI97696
aI97809
aI97857
aI97958
aI97964
aI97967
aI98003
aI98054
aI98520
aI98523
aI98658
aI98683
aI98721
aI98729
aI98839
aI98895
aI98979
aI99026
aI99039
aI99179
aI99230
aI99341
aI99348
aI99428
aI99567
aI99584
aI99645
aI99794
aI99875
aI99938
aI100000
aI100081
aI100083
aI100132
aI100187
aI100238
aI100245
aI100283
aI100306
aI100539
aI100850
aI100977
aI101053
aI101088
aI101189
aI101762
aI101933
aI101936
aI101969
aI102240
aI102625
aI102837
aI102904
aI102978
aI103027
aI103114
aI103122
aI103509
aI103558
aI103806
aI103855
aI103870
aI104091
aI104150
aI104326
aI104392
aI104495
aI104568
aI104589
aI104625
aI104801
aI104865
aI105040
aI105052
aI105156
aI105291
aI105465
aI105538
aI105711
aI105732
aI105782
aI105884
aI105885
aI106053
aI106180
aI106235
aI106244
aI106338
aI106344
aI106356
aI106389
aI106392
aI106411
aI106453
aI106617
aI106810
aI106909
aI106920
aI107123
aI107304
aI107596
aI107800
aI108208
aI108425
aI108484
aI108548
aI108681
aI108803
aI108838
aI108904
aI108923
aI109291
aI109361
aI109441
aI109532
aI109819
aI109916
aI109976
aI110027
aI110048
aI110081
aI111099
aI111104
aI111211
aI111341
aI111448
aI111547
aI111593
aI111702
aI111811
aI111819
aI112093
aI112298
aI112378
aI112437
aI112568
aI112581
aI112586
aI112591
aI112677
aI112818
aI112830
aI112904
aI113058
aI113097
aI113139
aI113235
aI113271
aI113408
aI113461
aI113473
aI113571
aI113589
aI113672
aI113701
aI113707
aI113736
aI113860
aI113905
aI114147
aI114152
aI114158
aI114184
aI114458
aI114481
aI114684
aI114790
aI114861
aI115721
aI115752
aI115772
aI115846
aI115866
aI115875
aI116046
aI116067
aI116182
aI116206
aI116208
aI116405
aI117112
aI117310
aI117530
aI117836
aI118065
aI118181
aI118450
aI118542
aI118911
aI119120
aI119192
aI119402
aI119414
aI119452
aI119581
aI119641
aI119939
aI120021
aI120340
aI120356
aI120411
aI120420
aI120632
aI120745
aI120776
aI120792
aI121123
aI121157
aI121442
aI121632
aI121788
aI121826
aI121904
aI121989
aI122166
aI122354
aI122467
aI122588
aI122839
aI122953
aI122982
aI123360
aI123480
aI123580
aI123622
aI123633
aI123642
aI123677
aI123867
aI124004
aI124601
aI124659
aI124712
aI124995
aI125071
aI125228
aI125617
aI125755
aI125778
aI125909
aI126107
aI126163
aI126226
aI126340
aI126631
aI126744
aI127092
aI127129
aI127141
aI127313
aI127535
aI127659
aI127668
aI127702
aI127865
aI128014
aI128059
aI128180
aI128201
aI128224
aI128515
aI128602
aI128675
aI128849
aI129062
aI129100
aI129285
aI129492
aI129502
aI129571
aI129756
aI129786
aI129832
aI129862
aI129864
aI129886
aI129897
aI130030
aI130043
aI130456
aI130524
aI130528
aI130826
aI131018
aI131063
aI131131
aI131138
aI131282
aI131416
aI131581
aI131597
aI131627
aI131714
aI131743
aI132189
aI132272
aI132362
aI132375
aI132612
aI133050
aI133146
aI133291
aI133327
aI133476
aI133515
aI133648
aI133933
aI133963
aI134016
aI134096
aI134133
aI134160
aI134223
aI134322
aI134366
aI134574
aI134657
aI134688
aI134703
aI134815
aI134856
aI134886
aI135029
aI135139
aI135155
aI135356
aI135399
aI135436
aI135561
aI135566
aI135579
aI135666
aI135748
aI135914
aI135975
aI135976
aI136008
aI136227
aI136720
aI136938
aI137118
aI137265
aI137271
aI137297
aI137412
aI137475
aI137595
aI137622
aI137809
aI137826
aI137961
aI138054
aI138382
aI138549
aI138601
aI138639
aI138704
aI138821
aI138975
aI139306
aI139428
aI139457
aI139512
aI139721
aI139740
aI139856
aI139872
aI140006
aI140017
aI140122
aI140203
aI140231
aI140487
aI140490
aI140783
aI140963
aI141108
aI141158
aI141163
aI141328
aI141779
aI141821
aI141946
aI142177
aI142240
aI142248
aI142249
aI142324
aI142454
aI142472
aI142665
aI142718
aI142742
aI142826
aI142879
aI142890
aI143224
aI143275
aI143320
aI143516
aI143526
aI143859
aI143931
aI144228
aI144373
aI144379
aI144438
aI144562
aI144706
aI144863
aI144870
aI144874
aI144878
aI144938
aI145214
aI145295
aI145318
aI145512
aI145562
aI145597
aI145746
aI145824
aI146078
aI146120
aI146127
aI146457
aI146489
aI146570
aI147042
aI147058
aI147415
aI147545
aI147546
aI147576
aI147736
aI147740
aI147904
aI148067
aI148193
aI148329
aI148392
aI148444
aI148549
aI148665
aI148719
aI148898
aI149284
aI149500
aI149676
aI149783
aI150235
aI150320
aI150358
aI150417
aI150599
aI150639
aI150686
aI150703
aI150986
aI151084
aI151141
aI151480
aI151521
aI151742
aI151988
aI152103
aI152245
aI152340
aI152499
aI152525
aI152598
aI152609
aI152751
aI152808
aI152962
aI153011
aI153040
aI153104
aI153445
aI153520
aI153632
aI153685
aI153717
aI153803
aI153847
aI153931
aI153956
aI154193
aI154202
aI154423
aI154830
aI154884
aI154931
aI154971
aI155131
aI155142
aI155341
aI155488
aI155997
aI156071
aI156100
aI156324
aI156341
aI156370
aI156497
aI156572
aI156609
aI156643
aI156687
aI156846
aI156889
aI156928
aI156974
aI157001
aI157052
aI157112
aI157155
aI157283
aI157390
aI157469
aI157516
aI157635
aI157669
aI157789
aI157866
aI157876
aI157928
aI157960
aI158292
aI158333
aI158344
aI158849
aI158922
aI159223
aI159240
aI159399
aI159458
aI159609
aI159627
aI159667
aI160057
aI160195
aI160330
aI160341
aI160531
aI160811
aI160836
aI160860
aI161010
aI161047
aI161231
aI161609
aI161720
aI161772
aI161807
aI161940
aI162249
aI162454
aI162579
aI162627
aI162952
aI162998
aI163057
aI163112
aI163518
aI163589
aI163611
aI163710
aI163831
aI164005
aI164104
aI164121
aI164330
aI164548
aI164555
aI164602
aI164635
aI164780
aI165055
aI165056
aI165298
aI165522
aI165589
aI165643
aI165686
aI165831
aI166003
aI166060
aI166244
aI166287
aI166320
aI166358
aI166565
aI166948
aI167122
aI167347
aI167443
aI167477
aI167486
aI167696
aI167724
aI167854
aI167898
aI167906
aI167952
aI168031
aI168337
aI168583
aI168662
aI168686
aI168713
aI168781
aI168890
aI168909
aI169045
aI169111
aI169169
aI169250
aI169331
aI169438
aI169562
aI169996
aI170178
aI170340
aI170393
aI170401
aI170436
aI170442
aI170640
aI170700
aI170784
aI170974
aI171190
aI171192
aI171201
aI171241
aI171255
aI171310
aI171360
aI171464
aI171548
aI171678
aI171740
aI171753
aI171757
aI171809
aI171962
aI172021
aI172057
aI172556
aI172599
aI172648
aI172686
aI172877
aI172995
aI173004
aI173008
aI173080
aI173514
aI173598
aI173693
aI173825
aI173997
aI174070
aI174113
aI174206
aI174425
aI174511
aI174690
aI174721
aI174888
aI175102
aI175310
aI175437
aI175597
aI175653
aI175878
aI175908
aI175954
aI176017
aI176031
aI176120
aI176180
aI176226
aI176278
aI176328
aI176330
aI176606
aI177015
aI177149
aI177262
aI177323
aI177366
aI177375
aI177468
aI177496
aI177934
aI178331
aI178413
aI178446
aI178516
aI178606
aI178690
aI178691
aI178748
aI178795
aI178941
aI178980
aI179141
aI179322
aI179415
aI179441
aI179699
aI179727
aI179898
aI179926
aI180013
aI180045
aI180101
aI180362
aI180366
aI180383
aI180521
aI180584
aI180653
aI180662
aI180751
aI180764
aI180787
aI181030
aI181118
aI181139
aI181179
aI181446
aI181449
aI181627
aI181655
aI181816
aI181888
aI182233
aI182236
aI182362
aI182417
aI182523
aI182784
aI182834
aI183166
aI183204
aI183319
aI183364
aI183379
aI183519
aI183620
aI183905
aI183965
aI183991
aI184139
aI184313
aI184384
aI184485
aI184611
aI184621
aI184773
aI184830
aI184945
aI184994
aI185276
aI185373
aI185444
aI185464
aI185472
aI185614
aI185781
aI185807
aI185935
aI185936
aI186013
aI186036
aI186095
aI186130
aI186165
aI186412
aI186497
aI186697
aI186927
aI187054
aI187072
aI187144
aI187177
aI187236
aI187240
aI187249
aI187349
aI187424
aI187543
aI187722
aI187734
aI188040
aI188136
aI188146
aI188311
aI188434
aI188460
aI188674
aI188817
aI188824
aI188865
aI188873
aI188958
aI189241
aI189244
aI189368
aI189376
aI189588
aI189694
aI189752
aI189775
aI190185
aI190218
aI190291
aI190463
aI190829
aI191054
aI191095
aI191218
aI191225
aI191265
aI191301
aI191314
aI191515
aI191691
aI191846
aI191874
aI191925
aI191949
aI192007
aI192128
aI192154
aI192212
aI192296
aI192554
aI192660
aI192714
aI192932
aI193122
aI193194
aI193380
aI193498
aI193673
aI193674
aI193875
aI194203
aI194208
aI194331
aI194414
aI194532
aI194724
aI194756
aI194790
aI195211
aI195538
aI195561
aI195800
aI195815
aI195817
aI195842
aI196074
aI196210
aI196430
aI196462
aI196664
aI196715
aI196759
aI196789
aI196815
aI196843
aI196885
aI196924
aI197097
aI197130
aI197444
aI197609
aI197775
aI197809
aI197840
aI197997
aI198004
aI198079
aI198223
aI198312
aI198447
aI198477
aI198486
aI198492
aI198530
aI198563
aI198590
aI198775
aI198799
aI199127
aI199158
aI199437
aI199449
aI199575
aI199681
aI199783
aI199842
aI199951
aI199969
aI199989
aI200250
aI200291
aI200365
aI200381
aI200421
aI200451
aI200541
aI200605
aI200627
aI200643
aI200839
aI201463
aI201727
aI201925
aI202178
aI202582
aI202963
aI202981
aI202998
aI203003
aI203095
aI203294
aI203389
aI203636
aI203661
aI203754
aI203865
aI203965
aI204036
aI204051
aI204137
aI204432
aI204448
aI204471
aI204507
aI204650
aI204887
aI205089
aI205108
aI205232
aI205251
aI205344
aI205435
aI205570
aI205573
aI205636
aI205729
aI206027
aI206049
aI206273
aI206417
aI206487
aI206579
aI206701
aI206751
aI206784
aI206922
aI207059
aI207151
aI207205
aI207611
aI207826
aI207844
aI207853
aI207860
aI207886
aI207898
aI207925
aI207926
aI208054
aI208340
aI208363
aI208423
aI208516
aI208649
aI208688
aI208793
aI208955
aI208991
aI209044
aI209071
aI209357
aI209468
aI209480
aI209570
aI209898
aI209904
aI209989
aI209995
aI210012
aI210050
aI210081
aI210204
aI210372
aI210394
aI210522
aI210736
aI210782
aI210795
aI210846
aI210857
aI210980
aI210982
aI210990
aI211177
aI211186
aI211425
aI211476
aI211825
aI212363
aI212587
aI212939
aI213091
aI213453
aI213693
aI213728
aI213843
aI214124
aI214349
aI214471
aI214491
aI214604
aI214648
aI214692
aI214727
aI214919
aI214984
aI215062
aI215439
aI215482
aI215644
aI215723
aI215808
aI215845
aI215982
aI216103
aI216161
aI216277
aI216449
aI216497
aI216726
aI216761
aI216790
aI217016
aI217156
aI217181
aI217397
aI217546
aI217783
aI217937
aI218205
aI218290
aI218343
aI218397
aI218494
aI218703
aI218855
aI218891
aI218988
aI218996
aI219063
aI219075
aI219135
aI219261
aI219546
aI219771
aI219909
aI219928
aI220607
aI220732
aI220808
aI221000
aI221095
aI221303
aI221547
aI221562
aI221605
aI221609
aI221846
aI221893
aI221932
aI222146
aI222228
aI222317
aI222512
aI222564
aI222662
aI222681
aI222828
aI222842
aI222903
aI223414
aI223757
aI223777
aI223833
aI224010
aI224104
aI224111
aI224114
aI224126
aI224289
aI224530
aI224542
aI224554
aI224557
aI224991
aI225281
aI225558
aI225603
aI225609
aI225730
aI225913
aI226119
aI226171
aI226220
aI226256
aI226496
aI226903
aI227031
aI227044
aI227204
aI227220
aI227226
aI227428
aI227440
aI227468
aI227478
aI227491
aI227851
aI227940
aI227958
aI227985
aI228011
aI228013
aI228306
aI228309
aI228350
aI228635
aI228749
aI229132
aI229342
aI229391
aI229643
aI229647
aI229659
aI229740
aI229889
aI230040
aI230096
aI230240
aI230450
aI230468
aI230585
aI230615
aI230679
aI230915
aI230964
aI231028
aI231093
aI231097
aI231281
aI231343
aI231408
aI231549
aI231580
aI231616
aI231768
aI232088
aI232121
aI232185
aI232287
aI232432
aI232538
aI232627
aI232760
aI232849
aI232900
aI232950
aI233005
aI233033
aI233140
aI233236
aI233266
aI233365
aI233491
aI233825
aI233868
aI234238
aI234328
aI234341
aI234347
aI234595
aI234633
aI234889
aI234910
aI234914
aI234938
aI234963
aI235093
aI235203
aI235595
aI235672
aI235787
aI235832
aI235964
aI236148
aI236234
aI236338
aI236370
aI236671
aI236721
aI236925
aI236945
aI237075
aI237420
aI237759
aI238029
aI238125
aI238355
aI238410
aI238498
aI238691
aI238708
aI239010
aI239029
aI239347
aI239387
aI239395
aI239444
aI239492
aI239625
aI239837
aI240111
aI240119
aI240173
aI240175
aI240210
aI240379
aI240495
aI240501
aI240783
aI240784
aI240798
aI240811
aI240903
aI241113
aI241396
aI241466
aI241503
aI241525
aI241832
aI241837
aI242297
aI242422
aI242529
aI242543
aI242570
aI242610
aI242673
aI242679
aI242734
aI242779
aI242855
aI242946
aI242968
aI243158
aI243418
aI243773
aI243777
aI243780
aI243891
aI243896
aI243946
aI244050
aI244060
aI244159
aI244181
aI244665
aI244949
aI245242
aI245315
aI245432
aI245448
aI245460
aI245642
aI245664
aI245997
aI246001
aI246004
aI246069
aI246248
aI246263
aI246270
aI246327
aI246999
aI247130
aI247259
aI247264
aI247407
aI247477
aI247484
aI247720
aI247839
aI248014
aI248129
aI248142
aI248163
aI248235
aI248314
aI248457
aI248469
aI248559
aI248582
aI249131
aI249184
aI249599
aI249969
aI250164
aI250592
aI250893
aI250951
aI250953
aI251195
aI251242
aI251395
aI251531
aI251639
aI251741
aI251752
aI251798
aI251892
aI251920
aI252147
aI252354
aI252388
aI252748
aI252927
aI253408
aI253432
aI253630
aI253665
aI253742
aI253770
aI253835
aI253964
aI254745
aI254789
aI254814
aI254994
aI255096
aI255165
aI255274
aI255966
aI256180
aI256192
aI256251
aI256309
aI256343
aI256628
aI256713
aI256769
aI256787
aI256838
aI256916
aI256973
aI256983
aI257058
aI257060
aI257136
aI257215
aI257336
aI257370
aI257566
aI257629
aI257971
aI258112
aI258243
aI258516
aI258661
aI258850
aI258905
aI258996
aI259049
aI259422
aI259465
aI259690
aI259793
aI259814
aI260105
aI260275
aI260478
aI260486
aI260618
aI260695
aI260774
aI260925
aI261426
aI261453
aI261558
aI261721
aI261805
aI262030
aI262162
aI262274
aI262323
aI262371
aI262394
aI262404
aI262425
aI262476
aI262487
aI262509
aI262514
aI262576
aI262587
aI262608
aI262609
aI262617
aI262658
aI262938
aI262940
aI263052
aI263323
aI263351
aI263359
aI263412
aI263664
aI263700
aI263834
aI264110
aI264238
aI264385
aI264599
aI264619
aI264659
aI264660
aI264976
aI264992
aI265176
aI265200
aI265227
aI265256
aI265552
aI265611
aI265719
aI265743
aI265879
aI265915
aI265971
aI266099
aI266434
aI266487
aI266601
aI266627
aI266951
aI267127
aI267135
aI267224
aI267300
aI267363
aI267408
aI267521
aI267684
aI267694
aI267910
aI267932
aI268044
aI268215
aI268224
aI268233
aI268254
aI268363
aI268412
aI268435
aI268478
aI268729
aI268992
aI269017
aI269037
aI269099
aI269287
aI269358
aI270066
aI270096
aI270274
aI270570
aI270706
aI270744
aI271068
aI271424
aI271620
aI271643
aI271712
aI271795
aI272153
aI272678
aI272713
aI273442
aI273470
aI273579
aI273645
aI273698
aI273711
aI273855
aI273930
aI274083
aI274084
aI274109
aI274134
aI274216
aI274272
aI274449
aI274612
aI274671
aI274687
aI274800
aI274939
aI275117
aI275175
aI275197
aI275198
aI275449
aI275585
aI275611
aI275661
aI275695
aI276024
aI276254
aI276413
aI276840
aI276893
aI276971
aI276986
aI277089
aI277094
aI277239
aI277289
aI277326
aI277642
aI277793
aI277831
aI277865
aI277869
aI277984
aI277991
aI278134
aI278161
aI278172
aI278222
aI278226
aI278365
aI278401
aI278449
aI278463
aI278705
aI278771
aI278822
aI278890
aI278966
aI279078
aI279097
aI279140
aI279145
aI279209
aI279386
aI279491
aI279524
aI279769
aI279824
aI279974
aI280536
aI280710
aI280819
aI280857
aI280858
aI280918
aI281028
aI281111
aI281179
aI281601
aI281688
aI281711
aI281758
aI282298
aI282553
aI282618
aI282659
aI283012
aI283060
aI283097
aI283203
aI283277
aI283286
aI283471
aI283498
aI283653
aI283816
aI284152
aI284160
aI284623
aI284641
aI284658
aI284954
aI285005
aI285258
aI285462
aI285534
aI285568
aI285633
aI285660
aI285820
aI285832
aI285967
aI286089
aI286524
aI286553
aI287033
aI287235
aI287387
aI287396
aI287402
aI287443
aI287649
aI287663
aI287667
aI287714
aI287741
aI288042
aI288224
aI288313
aI288442
aI288639
aI288769
aI288824
aI288890
aI288933
aI288944
aI288955
aI289120
aI289201
aI289222
aI289260
aI289318
aI289393
aI289618
aI289640
aI289741
aI289813
aI289941
aI289995
aI290093
aI290113
aI290196
aI290248
aI290289
aI290828
aI290839
aI290979
aI291257
aI291394
aI291404
aI291686
aI291742
aI291784
aI291936
aI292118
aI292158
aI292301
aI292394
aI292463
aI292480
aI292493
aI292741
aI292792
aI292931
aI292997
aI293022
aI293027
aI293034
aI293125
aI293148
aI293249
aI293390
aI293548
aI293554
aI293625
aI293841
aI294032
aI294124
aI294134
aI294297
aI294451
aI294541
aI294689
aI294698
aI295055
aI295134
aI295316
aI295403
aI295420
aI295683
aI296056
aI296072
aI296176
aI296222
aI296224
aI296231
aI296243
aI296303
aI296604
aI296825
aI296907
aI296988
aI296997
aI297233
aI297349
aI297520
aI297562
aI297944
aI298252
aI298261
aI298396
aI298405
aI298461
aI298525
aI298540
aI298578
aI298697
aI298732
aI298784
aI299074
aI299207
aI299593
aI299649
aI299887
aI300008
aI300066
aI300330
aI300413
aI300437
aI300472
aI300538
aI300577
aI300718
aI300753
aI301082
aI301305
aI301582
aI301634
aI301735
aI301746
aI301817
aI301867
aI301963
aI302067
aI302110
aI302159
aI302219
aI302275
aI302380
aI302603
aI302789
aI303024
aI303219
aI303305
aI303413
aI303520
aI303607
aI303652
aI303667
aI303670
aI303847
aI304069
aI304083
aI304186
aI304341
aI304379
aI304917
aI304941
aI305050
aI305101
aI305135
aI305695
aI305978
aI306230
aI306313
aI306335
aI306343
aI306395
aI306453
aI306466
aI306467
aI306486
aI306638
aI306644
aI306688
aI306940
aI306974
aI307323
aI307342
aI307511
aI307564
aI307773
aI307800
aI308101
aI308117
aI308274
aI308328
aI308332
aI308430
aI308730
aI308793
aI308900
aI308964
aI309022
aI309033
aI309232
aI309237
aI309514
aI309573
aI309633
aI309655
aI309692
aI309852
aI310035
aI310200
aI310354
aI310524
aI310532
aI310735
aI310770
aI310906
aI311309
aI311327
aI311385
aI311531
aI311553
aI311846
aI311891
aI312056
aI312175
aI312192
aI312412
aI312423
aI312559
aI312627
aI312632
aI312868
aI312870
aI313034
aI313130
aI313240
aI313246
aI313337
aI313341
aI313562
aI313593
aI313948
aI314023
aI314074
aI314251
aI314504
aI314694
aI314757
aI314792
aI314876
aI315178
aI315195
aI315565
aI315641
aI315660
aI315702
aI315744
aI315769
aI315790
aI315962
aI316008
aI316189
aI316342
aI316499
aI316526
aI316617
aI316666
aI316675
aI316704
aI316862
aI317357
aI317622
aI317798
aI317898
aI318044
aI318204
aI318455
aI318523
aI318550
aI318585
aI318701
aI318777
aI318888
aI319053
aI319345
aI319579
aI319706
aI319743
aI320246
aI320428
aI320641
aI320664
aI320703
aI321195
aI321214
aI321242
aI321332
aI321798
aI321861
aI321865
aI322141
aI322163
aI322482
aI322574
aI322610
aI322848
aI322895
aI323067
aI323288
aI323327
aI323370
aI323515
aI323525
aI323682
aI323827
aI323888
aI324008
aI324258
aI324321
aI324322
aI324338
aI324500
aI324837
aI325102
aI325374
aI325483
aI325720
aI325838
aI325867
aI326086
aI326428
aI326510
aI326702
aI326854
aI326863
aI326937
aI326970
aI327047
aI327114
aI327255
aI327383
aI327413
aI327590
aI327780
aI327807
aI327890
aI328008
aI328091
aI328111
aI328200
aI328255
aI328289
aI328374
aI328403
aI328421
aI328433
aI328536
aI328661
aI328728
aI328797
aI328836
aI328838
aI328862
aI328890
aI329080
aI329217
aI329336
aI329341
aI329373
aI329455
aI329573
aI329850
aI329946
aI330110
aI330122
aI330248
aI330500
aI330522
aI330536
aI330676
aI330750
aI331230
aI331242
aI331268
aI331366
aI331395
aI331475
aI331535
aI331627
aI331688
aI331712
aI331817
aI332159
aI332407
aI332609
aI332844
aI332845
aI332861
aI332908
aI332914
aI333095
aI333150
aI333434
aI333888
aI333998
aI334007
aI334034
aI334118
aI334178
aI334332
aI334399
aI334469
aI334509
aI334511
aI334746
aI334975
aI335521
aI335670
aI335844
aI336053
aI336182
aI336300
aI336324
aI336862
aI336872
aI337160
aI337180
aI337233
aI337354
aI337443
aI337498
aI337551
aI337561
aI337563
aI338105
aI338159
aI338207
aI338417
aI338625
aI338901
aI338948
aI339986
aI340069
aI340420
aI340511
aI340665
aI340804
aI340894
aI340922
aI341017
aI341230
aI341246
aI341401
aI341409
aI341603
aI341645
aI341719
aI342060
aI342146
aI342204
aI342293
aI342322
aI342367
aI342675
aI342765
aI342770
aI342819
aI342933
aI343068
aI343504
aI343552
aI343642
aI343852
aI343967
aI344029
aI344125
aI344154
aI344271
aI344279
aI344308
aI344498
aI344521
aI344548
aI344878
aI344881
aI344903
aI345071
aI345353
aI345356
aI345376
aI345434
aI346207
aI346262
aI346589
aI346638
aI346702
aI346759
aI346904
aI347113
aI347172
aI347390
aI347544
aI347568
aI347766
aI347818
aI347930
aI347995
aI348091
aI348186
aI348481
aI348730
aI348913
aI349006
aI349101
aI349130
aI349485
aI349647
aI349888
aI349936
aI350003
aI350023
aI350073
aI350122
aI350157
aI350214
aI350230
aI350231
aI350262
aI350270
aI350389
aI350639
aI350874
aI350898
aI350974
aI351130
aI351331
aI351351
aI351489
aI351887
aI352194
aI352418
aI352552
aI352652
aI352703
aI352895
aI353001
aI353028
aI353130
aI353136
aI353149
aI353411
aI353510
aI353593
aI353953
aI353982
aI354368
aI354724
aI355106
aI355123
aI355183
aI355450
aI355569
aI355762
aI356169
aI356263
aI356349
aI356358
aI356380
aI356394
aI356528
aI356531
aI356733
aI357229
aI357278
aI357317
aI357418
aI357478
aI357578
aI357633
aI357737
aI357743
aI357819
aI357870
aI357888
aI357899
aI358231
aI358252
aI358293
aI358296
aI358525
aI358606
aI358653
aI358658
aI358707
aI358765
aI358796
aI358817
aI358976
aI359128
aI359164
aI359182
aI359219
aI359220
aI359239
aI359432
aI359569
aI359715
aI359801
aI360073
aI360216
aI360447
aI360449
aI360494
aI360573
aI360600
aI360629
aI360661
aI360706
aI360877
aI360878
aI360902
aI361073
aI361111
aI361238
aI361282
aI361351
aI361382
aI361430
aI361481
aI361506
aI361521
aI361527
aI361730
aI361901
aI361933
aI362094
aI362219
aI362530
aI362640
aI362941
aI362951
aI363207
aI363286
aI363308
aI363415
aI363527
aI363581
aI363645
aI363654
aI363767
aI363784
aI363840
aI363844
aI363845
aI364016
aI364031
aI364157
aI364266
aI364284
aI364340
aI364399
aI364470
aI364493
aI364596
aI364608
aI364745
aI364919
aI365214
aI365618
aI365623
aI365626
aI365745
aI365766
aI366096
aI366141
aI366499
aI366576
aI366659
aI366884
aI367074
aI367142
aI367310
aI367386
aI367398
aI367468
aI367578
aI367666
aI367848
aI368193
aI368196
aI368218
aI368302
aI368541
aI368595
aI368648
aI368684
aI368855
aI368900
aI368961
aI368980
aI368994
aI369082
aI369093
aI369249
aI369259
aI369345
aI369370
aI369379
aI369442
aI369482
aI369533
aI369584
aI369685
aI369771
aI369979
aI370209
aI370266
aI370462
aI370475
aI370478
aI370513
aI370657
aI370839
aI370899
aI370953
aI371054
aI371365
aI371652
aI371677
aI371890
aI372294
aI372794
aI373029
aI373060
aI373075
aI373111
aI373381
aI373424
aI373768
aI373857
aI373904
aI373945
aI374043
aI374115
aI374448
aI375021
aI375184
aI375205
aI375232
aI375285
aI375407
aI375450
aI375484
aI375493
aI375503
aI375509
aI375810
aI376093
aI376295
aI376549
aI376564
aI376667
aI376773
aI376891
aI376959
aI377097
aI377195
aI377393
aI377595
aI377730
aI377867
aI377949
aI377999
aI378502
aI378506
aI378614
aI378655
aI378962
aI378968
aI379441
aI379605
aI379636
aI379716
aI379882
aI379892
aI380057
aI380348
aI380459
aI380734
aI380756
aI380854
aI380892
aI381123
aI381416
aI381463
aI381504
aI381563
aI382125
aI382307
aI382512
aI382603
aI382668
aI382670
aI382696
aI382737
aI382801
aI383107
aI383112
aI383270
aI383337
aI383406
aI383414
aI383448
aI383549
aI383594
aI383606
aI383678
aI384038
aI384114
aI384468
aI384527
aI384531
aI384670
aI384823
aI384931
aI384981
aI384983
aI385029
aI385181
aI385378
aI385770
aI385997
aI386165
aI386187
aI386313
aI386370
aI386424
aI386525
aI386553
aI386581
aI386912
aI387098
aI387150
aI387369
aI387429
aI387482
aI387850
aI387909
aI387950
aI387990
aI388026
aI388042
aI388066
aI388100
aI388299
aI388619
aI388677
aI388707
aI388829
aI389108
aI389168
aI389205
aI389258
aI389295
aI389453
aI389458
aI389644
aI389649
aI389753
aI390052
aI390130
aI390471
aI390704
aI390731
aI390826
aI391320
aI391415
aI391862
aI391940
aI391972
aI392229
aI392320
aI392575
aI392753
aI393226
aI393266
aI393271
aI393288
aI393497
aI393569
aI393682
aI393692
aI393794
aI393804
aI394009
aI394033
aI394079
aI394131
aI394199
aI394206
aI394474
aI394510
aI394659
aI394715
aI394840
aI394904
aI395291
aI395343
aI395344
aI395364
aI395402
aI395557
aI395633
aI395634
aI395644
aI395701
aI395745
aI395801
aI395843
aI395865
aI396178
aI396302
aI396385
aI396387
aI396541
aI396845
aI397045
aI397063
aI397268
aI397303
aI397354
aI397433
aI397628
aI397636
aI397734
aI398119
aI398153
aI398423
aI398489
aI398534
aI398637
aI398727
aI398753
aI398758
aI398992
aI399178
aI399205
aI399452
aI399570
aI399595
aI399832
aI399879
aI400123
aI400139
aI400161
aI400166
aI400238
aI400431
aI400507
aI400525
aI400528
aI400567
aI400596
aI400728
aI400887
aI400916
aI400983
aI401004
aI401010
aI401027
aI401088
aI401446
aI401556
aI401971
aI402077
aI402115
aI402206
aI402233
aI402405
aI402786
aI403145
aI403150
aI403294
aI403500
aI403639
aI403657
aI404349
aI404444
aI404517
aI404526
aI404602
aI404758
aI405146
aI405188
aI405195
aI405214
aI405279
aI405444
aI405635
aI405657
aI405674
aI405736
aI406211
aI406253
aI406403
aI406611
aI406734
aI406841
aI406899
aI406997
aI407056
aI407115
aI407298
aI407386
aI407644
aI407868
aI408049
aI408235
aI408480
aI408859
aI409100
aI409303
aI409725
aI409855
aI409921
aI410056
aI410105
aI410225
aI410319
aI410350
aI410650
aI410942
aI411086
aI411241
aI411303
aI411530
aI411674
aI411817
aI412247
aI412437
aI412440
aI412443
aI412471
aI412483
aI412878
aI412899
aI412975
aI413044
aI413058
aI413079
aI413146
aI413339
aI413341
aI413358
aI413419
aI413805
aI413839
aI413955
aI414034
aI414102
aI414133
aI414156
aI414385
aI414516
aI414744
aI415048
aI415073
aI415076
aI415163
aI415179
aI415194
aI415334
aI415413
aI415432
aI415646
aI415716
aI415727
aI415746
aI416104
aI416308
aI416451
aI416543
aI416668
aI416930
aI416960
aI417430
aI417597
aI417632
aI417779
aI417965
aI418109
aI418471
aI418623
aI418680
aI418692
aI418816
aI418893
aI419081
aI419089
aI419344
aI419401
aI419473
aI419503
aI419653
aI419723
aI419789
aI419848
aI420081
aI420120
aI420229
aI420658
aI420666
aI421188
aI421471
aI421564
aI421566
aI421865
aI422240
aI422676
aI422700
aI422778
aI422918
aI423039
aI423093
aI423201
aI423498
aI423617
aI423618
aI423715
aI423744
aI423984
aI424146
aI424247
aI424464
aI424683
aI424866
aI424879
aI424940
aI424975
aI425324
aI425447
aI425578
aI425964
aI426011
aI426175
aI426202
aI426259
aI426611
aI426795
aI426897
aI426917
aI427034
aI427055
aI427113
aI427118
aI427133
aI427306
aI427341
aI427476
aI427612
aI427615
aI427750
aI427823
aI428067
aI428218
aI428231
aI428375
aI428403
aI428562
aI428985
aI429042
aI429174
aI429261
aI429505
aI429593
aI429598
aI429623
aI429754
aI429833
aI429924
aI430002
aI430047
aI430052
aI430073
aI430160
aI430287
aI430319
aI430469
aI430567
aI430690
aI431023
aI431067
aI431136
aI431152
aI431173
aI431190
aI431364
aI431495
aI431671
aI431891
aI431923
aI432106
aI432125
aI432213
aI432234
aI432333
aI432421
aI432519
aI432623
aI432657
aI432906
aI433182
aI433204
aI433277
aI433279
aI433499
aI433505
aI433515
aI433547
aI433574
aI433714
aI433892
aI433904
aI433915
aI434179
aI434297
aI434509
aI434511
aI434513
aI434548
aI434580
aI434898
aI434990
aI435075
aI435260
aI435384
aI435389
aI435391
aI435444
aI435475
aI435807
aI435880
aI435922
aI436130
aI436273
aI436814
aI436992
aI437240
aI437262
aI437325
aI437465
aI437494
aI437540
aI437859
aI438024
aI438364
aI438567
aI438737
aI439143
aI439593
aI439715
aI439773
aI439837
aI439840
aI440060
aI440212
aI440284
aI440387
aI440461
aI440486
aI440514
aI440529
aI440562
aI440724
aI440779
aI441156
aI441196
aI441240
aI441253
aI441415
aI441491
aI441511
aI441522
aI441541
aI441553
aI441672
aI441854
aI441862
aI441874
aI441969
aI442040
aI442128
aI442323
aI442419
aI442565
aI442582
aI442630
aI442667
aI442724
aI442929
aI442942
aI443167
aI443240
aI443313
aI443602
aI443772
aI443784
aI443887
aI444199
aI444209
aI444236
aI444444
aI444515
aI444565
aI444817
aI444913
aI444926
aI445009
aI445128
aI445233
aI445267
aI445309
aI445371
aI445433
aI445557
aI445643
aI445662
aI446352
aI446354
aI446626
aI447009
aI447169
aI447187
aI447328
aI447337
aI447522
aI447602
aI448076
aI448176
aI448181
aI448243
aI448269
aI448288
aI448518
aI448535
aI448795
aI448849
aI448897
aI448923
aI449075
aI449403
aI449567
aI449594
aI449638
aI449872
aI449888
aI450129
aI450182
aI450263
aI450303
aI450308
aI450359
aI450364
aI450391
aI450399
aI450561
aI450724
aI450790
aI451008
aI451120
aI451123
aI451144
aI451155
aI451228
aI451234
aI451275
aI451284
aI451324
aI451345
aI451440
aI451559
aI451571
aI451679
aI451859
aI451943
aI451944
aI452003
aI452312
aI452700
aI452966
aI453001
aI453159
aI453178
aI453283
aI453317
aI453334
aI453341
aI453400
aI453427
aI453824
aI453903
aI454203
aI454252
aI454762
aI455005
aI455267
aI455384
aI455395
aI455483
aI455735
aI455751
aI455767
aI455859
aI455937
aI455975
aI456012
aI456077
aI456199
aI456254
aI456323
aI456525
aI456574
aI456690
aI456730
aI456884
aI457037
aI457078
aI457204
aI457217
aI457226
aI457400
aI457449
aI457566
aI457575
aI457580
aI457581
aI457780
aI457893
aI457900
aI458048
aI458109
aI458119
aI458410
aI458485
aI458510
aI458549
aI458613
aI458755
aI459050
aI459103
aI459164
aI459342
aI459440
aI459598
aI459662
aI459922
aI459933
aI459967
aI460053
aI460091
aI460107
aI460145
aI460208
aI460266
aI460312
aI460333
aI460373
aI460378
aI460390
aI460407
aI460460
aI460646
aI460652
aI460684
aI460866
aI460982
aI461030
aI461130
aI461311
aI461331
aI461410
aI461620
aI461634
aI461681
aI461715
aI461722
aI461758
aI461775
aI461802
aI461839
aI461963
aI462105
aI462241
aI462342
aI462376
aI462424
aI462576
aI462784
aI462840
aI462904
aI462928
aI462953
aI463066
aI463084
aI463199
aI463290
aI463296
aI463522
aI463527
aI463583
aI463611
aI463633
aI463703
aI463771
aI463802
aI463836
aI463865
aI464089
aI464092
aI464196
aI464462
aI464469
aI464622
aI465129
aI465223
aI465357
aI465404
aI465424
aI465735
aI465806
aI465862
aI465877
aI466211
aI466222
aI466259
aI466565
aI466665
aI466787
aI466838
aI467096
aI467296
aI467314
aI467726
aI467791
aI467848
aI467887
aI467988
aI468022
aI468027
aI468043
aI468121
aI468161
aI468162
aI468505
aI468778
aI468885
aI468917
aI468925
aI468934
aI468965
aI468997
aI469067
aI469134
aI469165
aI469192
aI469246
aI469300
aI469329
aI469356
aI469671
aI469777
aI469795
aI469924
aI469982
aI469996
aI470070
aI470095
aI470115
aI470121
aI470256
aI470364
aI470386
aI470714
aI470773
aI470924
aI470935
aI471273
aI471342
aI471394
aI471483
aI471488
aI471789
aI472088
aI472211
aI472256
aI472364
aI472376
aI472530
aI472678
aI472691
aI472795
aI473055
aI473199
aI473370
aI473555
aI473573
aI473720
aI473915
aI474078
aI474119
aI474293
aI474499
aI474608
aI474751
aI475248
aI475407
aI475413
aI475510
aI475723
aI475906
aI475990
aI476279
aI476664
aI476787
aI476810
aI476838
aI476856
aI477016
aI477112
aI477144
aI477195
aI478157
aI478312
aI478320
aI478380
aI478528
aI478721
aI478736
aI478759
aI478766
aI478906
aI479176
aI479213
aI479248
aI479466
aI479557
aI479858
aI479948
aI480400
aI480408
aI480591
aI480593
aI480624
aI480643
aI480780
aI481010
aI481285
aI481370
aI481390
aI481710
aI482022
aI482080
aI482242
aI482275
aI482319
aI482585
aI482589
aI482719
aI483027
aI483130
aI483401
aI483446
aI483553
aI484151
aI484280
aI484404
aI484751
aI485139
aI485201
aI485288
aI485368
aI485424
aI485485
aI485489
aI485580
aI485673
aI485822
aI485916
aI485951
aI486254
aI486306
aI486369
aI486457
aI486501
aI486770
aI486846
aI486974
aI487002
aI487095
aI487217
aI487282
aI487375
aI487438
aI487498
aI487530
aI487548
aI487631
aI487685
aI487722
aI487925
aI488075
aI488201
aI488346
aI488349
aI488401
aI488463
aI488789
aI488942
aI488977
aI489014
aI489088
aI489235
aI489304
aI489358
aI489550
aI489728
aI489733
aI489873
aI490105
aI490225
aI490286
aI490441
aI490629
aI490878
aI490964
aI491098
aI491213
aI491478
aI491515
aI491784
aI491851
aI491872
aI492077
aI492084
aI492107
aI492284
aI492524
aI492886
aI492970
aI493004
aI493102
aI493196
aI493206
aI493218
aI493295
aI493376
aI493435
aI493682
aI493683
aI493724
aI493753
aI493774
aI493932
aI494144
aI494345
aI494456
aI494580
aI494634
aI494679
aI494759
aI494810
aI494870
aI494887
aI494957
aI495020
aI495146
aI495311
aI495377
aI495456
aI495513
aI495557
aI495680
aI495808
aI495980
aI496081
aI496252
aI496324
aI496379
aI496618
aI496854
aI496897
aI496954
aI497002
aI497031
aI497049
aI497365
aI497466
aI497488
aI497504
aI497593
aI497640
aI497660
aI497801
aI498061
aI498286
aI498319
aI498547
aI498641
aI498747
aI498931
aI499134
aI499181
aI499266
aI499480
aI499594
aI499597
aI499646
aI499810
aI499866
aI500680
aI500940
aI501281
aI501294
aI501443
aI501491
aI501523
aI501652
aI501665
aI501982
aI502001
aI502220
aI502963
aI502979
aI503101
aI503135
aI503202
aI503210
aI503772
aI503826
aI503837
aI503978
aI504005
aI504194
aI504224
aI504248
aI504353
aI504621
aI504670
aI504958
aI505043
aI505455
aI505709
aI505818
aI505822
aI505845
aI505899
aI505934
aI506115
aI506311
aI506401
aI506454
aI506515
aI506656
aI506717
aI506723
aI506803
aI506933
aI507037
aI507080
aI507154
aI507330
aI507473
aI507575
aI507975
aI508101
aI508440
aI508514
aI508656
aI508899
aI508949
aI508950
aI509020
aI509416
aI510150
aI510329
aI510358
aI510651
aI510681
aI510707
aI510798
aI510992
aI511002
aI511050
aI511241
aI511594
aI511599
aI511658
aI511674
aI511777
aI512116
aI512302
aI512416
aI512442
aI512451
aI512576
aI512793
aI512869
aI512989
aI513041
aI513054
aI513136
aI513567
aI513688
aI513993
aI514049
aI514083
aI514376
aI514417
aI514504
aI514604
aI514682
aI514860
aI515226
aI515247
aI515660
aI515716
aI515777
aI515876
aI516244
aI516372
aI516677
aI516786
aI516805
aI516856
aI516916
aI517056
aI517069
aI517081
aI517296
aI517306
aI518383
aI518592
aI518721
aI518873
aI519193
aI519271
aI519460
aI519649
aI519673
aI519815
aI520043
aI520264
aI520427
aI520524
aI520531
aI520659
aI520707
aI520832
aI520892
aI520982
aI521008
aI521359
aI521540
aI521819
aI522007
aI522015
aI522262
aI522380
aI522418
aI522713
aI522778
aI522782
aI522791
aI522935
aI523096
aI523195
aI523371
aI523373
aI523454
aI523517
aI523527
aI523677
aI523782
aI523869
aI523871
aI523955
aI524187
aI524282
aI524333
aI524373
aI524431
aI524456
aI524656
aI524822
aI524957
aI524992
aI525024
aI525087
aI525208
aI525272
aI525371
aI525373
aI525376
aI525587
aI525619
aI525667
aI525860
aI526028
aI526103
aI526186
aI526188
aI526257
aI526342
aI526353
aI526359
aI526364
aI526394
aI526732
aI526800
aI526904
aI527022
aI527054
aI527064
aI527260
aI527374
aI527427
aI527440
aI527445
aI527464
aI527476
aI527497
aI527528
aI527578
aI527733
aI527845
aI527846
aI527961
aI527995
aI528084
aI528098
aI528136
aI528201
aI528251
aI528257
aI528311
aI528386
aI528411
aI528729
aI528866
aI528875
aI528984
aI529041
aI529083
aI529151
aI529234
aI529355
aI529631
aI529762
aI529838
aI529944
aI530259
aI530317
aI530466
aI530500
aI530952
aI530975
aI530987
aI531134
aI531178
aI531286
aI531510
aI531532
aI531585
aI531784
aI531798
aI531917
aI531967
aI532003
aI532058
aI532142
aI532164
aI532761
aI532976
aI532983
aI533003
aI533039
aI533069
aI533378
aI533408
aI533532
aI533548
aI533589
aI533721
aI534018
aI534121
aI534271
aI534444
aI534467
aI534659
aI534669
aI534734
aI535013
aI535080
aI535151
aI535183
aI535569
aI535579
aI535889
aI535902
aI535934
aI536034
aI536321
aI536403
aI536708
aI536720
aI536933
aI536947
aI537081
aI537270
aI537280
aI537548
aI537604
aI537611
aI537631
aI537991
aI538054
aI538230
aI538364
aI538844
aI538858
aI538934
aI539419
aI539683
aI539787
aI539808
aI539962
aI540159
aI540172
aI540253
aI540414
aI540636
aI540697
aI540860
aI541018
aI541132
aI541279
aI541493
aI541613
aI541773
aI542079
aI542205
aI542509
aI542625
aI542910
aI543043
aI543047
aI543231
aI543264
aI543330
aI543347
aI543547
aI543570
aI543706
aI543740
aI543836
aI543961
aI544121
aI544216
aI544299
aI544522
aI544574
aI544611
aI544782
aI544876
aI545002
aI545219
aI545250
aI545363
aI545385
aI545734
aI545867
aI545959
aI546029
aI546052
aI546229
aI546378
aI546428
aI546463
aI546569
aI546792
aI546823
aI546896
aI546928
aI547041
aI547144
aI547212
aI547293
aI547300
aI547309
aI547336
aI547493
aI547798
aI547839
aI547875
aI548011
aI548164
aI548336
aI548420
aI548423
aI548670
aI548703
aI548713
aI548882
aI548962
aI549063
aI549109
aI549224
aI549230
aI549427
aI549448
aI549508
aI549674
aI549943
aI550405
aI550514
aI550601
aI550691
aI550707
aI550815
aI551018
aI551129
aI551199
aI551334
aI551336
aI551713
aI551791
aI551794
aI551811
aI551881
aI551921
aI551952
aI551974
aI552364
aI552377
aI552610
aI552636
aI552945
aI553561
aI553669
aI553879
aI554037
aI554433
aI554445
aI554607
aI554828
aI555005
aI555048
aI555131
aI555356
aI555582
aI555648
aI555848
aI555898
aI555904
aI555905
aI555953
aI556073
aI556120
aI556420
aI556462
aI556597
aI556703
aI556758
aI556980
aI557117
aI557150
aI557163
aI557172
aI557324
aI557517
aI557552
aI557633
aI557679
aI557780
aI557923
aI557926
aI557977
aI558013
aI558114
aI558171
aI558234
aI558449
aI558457
aI558483
aI558498
aI558539
aI558558
aI558587
aI558608
aI558633
aI558635
aI558645
aI558671
aI558677
aI558864
aI558992
aI559247
aI559277
aI559312
aI559348
aI559364
aI559440
aI559550
aI559837
aI559950
aI559956
aI560010
aI560178
aI560222
aI560256
aI560298
aI560365
aI560470
aI560474
aI560721
aI560744
aI560756
aI561004
aI561116
aI561128
aI561336
aI561366
aI561393
aI561403
aI561619
aI561745
aI561780
aI561783
aI561889
aI561958
aI562084
aI562289
aI562557
aI562622
aI562632
aI562803
aI562818
aI562856
aI562906
aI563009
aI563056
aI563067
aI563403
aI563615
aI563871
aI563909
aI564129
aI564166
aI564197
aI564352
aI564489
aI564572
aI564612
aI564629
aI564743
aI564820
aI564830
aI564934
aI564936
aI565031
aI565034
aI565043
aI565085
aI565395
aI565405
aI565479
aI565485
aI565563
aI565575
aI565582
aI565635
aI565693
aI565781
aI566049
aI566324
aI566364
aI566502
aI566576
aI566651
aI566672
aI566941
aI567118
aI567205
aI567494
aI567535
aI567636
aI567708
aI567740
aI567881
aI568004
aI568041
aI568115
aI568132
aI568281
aI568398
aI568426
aI568879
aI569001
aI569059
aI569251
aI569274
aI569319
aI569450
aI569543
aI569618
aI569722
aI569801
aI569900
aI570022
aI570179
aI570456
aI570465
aI570515
aI570548
aI570659
aI570688
aI570773
aI570810
aI570952
aI570981
aI571279
aI571450
aI571544
aI571598
aI572260
aI572453
aI572499
aI572790
aI572825
aI572900
aI573258
aI573300
aI573320
aI573349
aI573605
aI573750
aI573753
aI573930
aI573935
aI574108
aI574145
aI574250
aI574315
aI574332
aI574350
aI574424
aI574675
aI574845
aI575051
aI575135
aI575367
aI575441
aI575719
aI575834
aI575915
aI575970
aI576222
aI577077
aI577128
aI577169
aI577614
aI577654
aI577783
aI577858
aI577877
aI577924
aI577995
aI578107
aI578210
aI578225
aI578324
aI578343
aI578347
aI578391
aI578489
aI578498
aI578524
aI578813
aI578848
aI578962
aI578974
aI579158
aI579226
aI579303
aI579648
aI579666
aI579815
aI579822
aI580248
aI580388
aI580555
aI580607
aI580704
aI580953
aI581415
aI581451
aI581501
aI581593
aI581887
aI581899
as.