(dp0
S'toilet'
p1
I70
sS'drier'
p2
I89
sS'bicycle'
p3
I2
sS'kite'
p4
I38
sS'bed'
p5
I65
sS'laptop'
p6
I73
sS'carrot'
p7
I57
sS'meter'
p8
I14
sS'sign'
p9
I13
sS'snowboard'
p10
I36
sS'ball'
p11
I37
sS'motorcycle'
p12
I4
sS'oven'
p13
I79
sS'keyboard'
p14
I76
sS'racket'
p15
I43
sS'table'
p16
I67
sS'airplane'
p17
I5
sS'couch'
p18
I63
sS'mouse'
p19
I74
sS'chair'
p20
I62
sS'boat'
p21
I9
sS'apple'
p22
I53
sS'sheep'
p23
I20
sS'horse'
p24
I19
sS'sandwich'
p25
I54
sS'hydrant'
p26
I11
sS'cup'
p27
I47
sS'tv'
p28
I72
sS'teddy'
p29
I88
sS'backpack'
p30
I27
sS'toaster'
p31
I80
sS'bowl'
p32
I51
sS'microwave'
p33
I78
sS'bench'
p34
I15
sS'book'
p35
I84
sS'scissors'
p36
I87
sS'elephant'
p37
I22
sS'orange'
p38
I55
sS'tie'
p39
I32
sS'ski'
p40
I35
sS'bird'
p41
I16
sS'knife'
p42
I49
sS'pizza'
p43
I59
sS'fork'
p44
I48
sS'plant'
p45
I64
sS'frisbee'
p46
I34
sS'umbrella'
p47
I28
sS'banana'
p48
I52
sS'bus'
p49
I6
sS'suitcase'
p50
I33
sS'bear'
p51
I23
sS'vase'
p52
I86
sS'toothbrush'
p53
I90
sS'glass'
p54
I46
sS'spoon'
p55
I50
sS'train'
p56
I7
sS'sink'
p57
I81
sS'handbag'
p58
I31
sS'broccoli'
p59
I56
sS'refrigerator'
p60
I82
sS'bat'
p61
I39
sS'remote'
p62
I75
sS'surfboard'
p63
I42
sS'cow'
p64
I21
sS'phone'
p65
I77
sS'light'
p66
I10
sS'clock'
p67
I85
sS'skateboard'
p68
I41
sS'dog'
p69
I18
sS'glove'
p70
I40
sS'cat'
p71
I17
sS'person'
p72
I1
sS'giraffe'
p73
I25
sS'truck'
p74
I8
sS'bottle'
p75
I44
sS'car'
p76
I3
sS'cake'
p77
I61
sS'donut'
p78
I60
sS'hotdog'
p79
I58
sS'zebra'
p80
I24
s.