(dp0
S'toilet'
p1
Vfurniture
p2
sS'drier'
p3
Vindoor
p4
sS'bicycle'
p5
Vvehicle
p6
sS'kite'
p7
Vsports
p8
sS'bed'
p9
Vfurniture
p10
sS'laptop'
p11
Velectronic
p12
sS'carrot'
p13
Vfood
p14
sS'meter'
p15
Voutdoor
p16
sS'sign'
p17
Voutdoor
p18
sS'snowboard'
p19
Vsports
p20
sS'ball'
p21
Vsports
p22
sS'motorcycle'
p23
Vvehicle
p24
sS'oven'
p25
Vappliance
p26
sS'keyboard'
p27
Velectronic
p28
sS'racket'
p29
Vsports
p30
sS'table'
p31
Vfurniture
p32
sS'airplane'
p33
Vvehicle
p34
sS'couch'
p35
Vfurniture
p36
sS'mouse'
p37
Velectronic
p38
sS'chair'
p39
Vfurniture
p40
sS'boat'
p41
Vvehicle
p42
sS'apple'
p43
Vfood
p44
sS'sheep'
p45
Vanimal
p46
sS'horse'
p47
Vanimal
p48
sS'sandwich'
p49
Vfood
p50
sS'hydrant'
p51
Voutdoor
p52
sS'cup'
p53
Vkitchen
p54
sS'tv'
p55
Velectronic
p56
sS'teddy'
p57
Vindoor
p58
sS'backpack'
p59
Vaccessory
p60
sS'toaster'
p61
Vappliance
p62
sS'bowl'
p63
Vkitchen
p64
sS'microwave'
p65
Vappliance
p66
sS'bench'
p67
Voutdoor
p68
sS'book'
p69
Vindoor
p70
sS'scissors'
p71
Vindoor
p72
sS'elephant'
p73
Vanimal
p74
sS'orange'
p75
Vfood
p76
sS'tie'
p77
Vaccessory
p78
sS'ski'
p79
Vsports
p80
sS'bird'
p81
Vanimal
p82
sS'knife'
p83
Vkitchen
p84
sS'pizza'
p85
Vfood
p86
sS'fork'
p87
Vkitchen
p88
sS'plant'
p89
Vfurniture
p90
sS'frisbee'
p91
Vsports
p92
sS'umbrella'
p93
Vaccessory
p94
sS'banana'
p95
Vfood
p96
sS'bus'
p97
Vvehicle
p98
sS'suitcase'
p99
Vaccessory
p100
sS'bear'
p101
Vanimal
p102
sS'vase'
p103
Vindoor
p104
sS'toothbrush'
p105
Vindoor
p106
sS'glass'
p107
Vkitchen
p108
sS'spoon'
p109
Vkitchen
p110
sS'train'
p111
Vvehicle
p112
sS'sink'
p113
Vappliance
p114
sS'handbag'
p115
Vaccessory
p116
sS'broccoli'
p117
Vfood
p118
sS'refrigerator'
p119
Vappliance
p120
sS'bat'
p121
Vsports
p122
sS'remote'
p123
Velectronic
p124
sS'surfboard'
p125
Vsports
p126
sS'cow'
p127
Vanimal
p128
sS'phone'
p129
Velectronic
p130
sS'light'
p131
Voutdoor
p132
sS'clock'
p133
Vindoor
p134
sS'skateboard'
p135
Vsports
p136
sS'dog'
p137
Vanimal
p138
sS'glove'
p139
Vsports
p140
sS'cat'
p141
Vanimal
p142
sS'person'
p143
Vperson
p144
sS'giraffe'
p145
Vanimal
p146
sS'truck'
p147
Vvehicle
p148
sS'bottle'
p149
Vkitchen
p150
sS'car'
p151
Vvehicle
p152
sS'cake'
p153
Vfood
p154
sS'donut'
p155
Vfood
p156
sS'hotdog'
p157
Vfood
p158
sS'zebra'
p159
Vanimal
p160
s.