(lp0
(lp1
I88
aI65
aa(lp2
I67
aI44
aI46
aI47
aI82
aI51
aI78
aI79
aI62
aa(lp3
I1
aI39
aa(lp4
I67
aI48
aI50
aI51
aI56
aI57
aa(lp5
I81
aI90
aa(lp6
I8
aI1
aI10
aI27
aI31
aa(lp7
I73
aI77
aa(lp8
I1
aI67
aI47
aI48
aI59
aI62
aa(lp9
I16
aI1
aa(lp10
I1
aI38
aa(lp11
I1
aI34
aa(lp12
I17
aI47
aI44
aI77
aI65
aa(lp13
I1
aI90
aa(lp14
I64
aI49
aI75
aI17
aI84
aI86
aI62
aI63
aa(lp15
I47
aI52
aI53
aI54
aI55
aI58
aa(lp16
I1
aI35
aI36
aa(lp17
I1
aI3
aI77
aI67
aI54
aI58
aI62
aa(lp18
I72
aI81
aI70
aI47
aa(lp19
I49
aI47
aI81
aI51
aI79
aa(lp20
I27
aI1
aI43
aI31
aa(lp21
I40
aI1
aI15
aI44
aI39
aa(lp22
I1
aI84
aI5
aI7
aa(lp23
I1
aI42
aa(lp24
I8
aI3
aa(lp25
I16
aI41
aI63
aa(lp26
I79
aI49
aI50
aI88
aI47
aI62
aa(lp27
I1
aI43
aI37
aI62
aI15
aa(lp28
I40
aI1
aI39
aa(lp29
I17
aI76
aa(lp30
I1
aI36
aa(lp31
I8
aI1
aI3
aI4
aa(lp32
I32
aI1
aI10
aI6
aa(lp33
I8
aI1
aI19
aI21
aa(lp34
I1
aI39
aa(lp35
I1
aI3
aI28
aI15
aa(lp36
I1
aI67
aI41
aI62
aI15
aa(lp37
I27
aI1
aI19
aa(lp38
I67
aI86
aa(lp39
I73
aI77
aI62
aa(lp40
I3
aI7
aa(lp41
I3
aI13
aI6
aa(lp42
I88
aI1
aI15
aa(lp43
I1
aI67
aI60
aI62
aa(lp44
I17
aI53
aI54
aa(lp45
I1
aI67
aI44
aI47
aI48
aI50
aI61
aa(lp46
I67
aI51
aI52
aa(lp47
I67
aI46
aI47
aI48
aI49
aI59
aa(lp48
I9
aI1
aa(lp49
I1
aI75
aI67
aI62
aI63
aa(lp50
I19
aI1
aI2
aI3
aI67
aI28
aI62
aI31
aa(lp51
I1
aI65
aI73
aI75
aI79
aI84
aI63
aa(lp52
I51
aI53
aI86
aa(lp53
I51
aI67
aI46
aI1
aa(lp54
I1
aI84
aI15
aa(lp55
I1
aI27
aI35
aI6
aI33
aa(lp56
I64
aI3
aI86
aI47
aa(lp57
I44
aI50
aI79
aI81
aI82
aI47
aI31
aa(lp58
I72
aI17
aI73
aa(lp59
I1
aI3
aI6
aI15
aa(lp60
I1
aI2
aI31
aI87
aa(lp61
I65
aI44
aI1
aa(lp62
I1
aI3
aI37
aI42
aI15
aI18
aa(lp63
I3
aI1
aI27
aI6
aa(lp64
I9
aI3
aI1
aa(lp65
I40
aI1
aI39
aa(lp66
I1
aI10
aI6
aa(lp67
I8
aI1
aI27
aI28
aI38
aa(lp68
I65
aI17
aI73
aa(lp69
I72
aI1
aI74
aI76
aa(lp70
I65
aI75
aI44
aa(lp71
I64
aI67
aI4
aI88
aI27
aI62
aa(lp72
I65
aI13
aI77
aI1
aa(lp73
I72
aI73
aI74
aI44
aI46
aI47
aI76
aI84
aI62
aa(lp74
I8
aI10
aI3
aI13
aa(lp75
I1
aI37
aI39
aa(lp76
I1
aI67
aI44
aI47
aI48
aI49
aI50
aI51
aI59
aI62
aa(lp77
I40
aI1
aI3
aI37
aa(lp78
I18
aI3
aI20
aa(lp79
I1
aI27
aI38
aa(lp80
I1
aI58
aI67
aI62
aI81
aa(lp81
I64
aI72
aI74
aI75
aI76
aI86
aI62
aa(lp82
I44
aI46
aI79
aI81
aI82
aI51
aI78
aI86
aa(lp83
I8
aI1
aI3
aa(lp84
I64
aI1
aI3
aI8
aI77
aI62
aa(lp85
I8
aI3
aI5
aa(lp86
I32
aI1
aI44
aa(lp87
I40
aI1
aI37
aI62
aI39
aa(lp88
I8
aI1
aI6
aI31
aa(lp89
I10
aI3
aI6
aI7
aa(lp90
I72
aI84
aI74
aI76
aI47
aa(lp91
I1
aI44
aI82
aI84
aI85
aI86
aa(lp92
I1
aI27
aI33
aa(lp93
I16
aI67
aI62
aa(lp94
I84
aI1
aI52
aI60
aI47
aa(lp95
I17
aI67
aI59
aI62
aI1
aa(lp96
I48
aI67
aI54
aI47
aa(lp97
I1
aI38
aI85
aI62
aa(lp98
I44
aI79
aI81
aI18
aI51
aI47
aa(lp99
I1
aI74
aI47
aI76
aI73
aa(lp100
I72
aI1
aI74
aI76
aa(lp101
I73
aI74
aI44
aI77
aI47
aI50
aI51
aI84
aI62
aa(lp102
I8
aI1
aI11
aa(lp103
I32
aI1
aI3
aI27
aI33
aa(lp104
I49
aI67
aI51
aI58
aI54
aa(lp105
I64
aI1
aI67
aI49
aI44
aI50
aI77
aI47
aI81
aI82
aI51
aI79
aI61
aI62
aa(lp106
I1
aI43
aI37
aI62
aI85
aa(lp107
I3
aI1
aI2
aI27
aI8
aa(lp108
I1
aI67
aI72
aI44
aI47
aI62
aI31
aa(lp109
I1
aI67
aI73
aI75
aI44
aI47
aI27
aI63
aa(lp110
I72
aI1
aI44
aI46
aa(lp111
I67
aI44
aI85
aI62
aI63
aa(lp112
I79
aI80
aI49
aI51
aI52
aI55
aa(lp113
I1
aI10
aI77
aI6
aa(lp114
I1
aI18
aI73
aI63
aa(lp115
I1
aI90
aI31
aa(lp116
I8
aI3
aI4
aa(lp117
I65
aI50
aI67
aI62
aa(lp118
I17
aI65
aI1
aa(lp119
I40
aI1
aI77
aI39
aa(lp120
I16
aI1
aI67
aI3
aI8
aa(lp121
I8
aI1
aI10
aI3
aI4
aa(lp122
I56
aI57
aI67
aa(lp123
I17
aI74
aI65
aI73
aa(lp124
I64
aI1
aI44
aI84
aI85
aI86
aI62
aI63
aa(lp125
I17
aI18
aI37
aa(lp126
I1
aI2
aI3
aI4
aI8
aI10
aI27
aI31
aa(lp127
I48
aI49
aI1
aI73
aa(lp128
I32
aI1
aI77
aI62
aI73
aa(lp129
I17
aI76
aI47
aa(lp130
I49
aI67
aI54
aa(lp131
I1
aI67
aI72
aI73
aI47
aI62
aa(lp132
I1
aI67
aI75
aI44
aI47
aI63
aa(lp133
I1
aI19
aI6
aa(lp134
I72
aI18
aI62
aa(lp135
I1
aI67
aI53
aI62
aI73
aa(lp136
I88
aI1
aI65
aa(lp137
I9
aI2
aI28
aI86
aa(lp138
I1
aI59
aI79
aa(lp139
I1
aI31
aa(lp140
I1
aI67
aI72
aI79
aI48
aI49
aI50
aI51
aI47
aI62
aa(lp141
I64
aI67
aI72
aI75
aI44
aI16
aI84
aI86
aI63
aa(lp142
I1
aI43
aI37
aa(lp143
I8
aI1
aI3
aI13
aa(lp144
I1
aI51
aI77
aI47
aI63
aa(lp145
I1
aI67
aI77
aI15
aI47
aI62
aa(lp146
I17
aI74
aI63
aa(lp147
I64
aI1
aI67
aI79
aI82
aI85
aI62
aa(lp148
I1
aI34
aI15
aa(lp149
I56
aI57
aI49
aa(lp150
I67
aI46
aI51
aI52
aI53
aI62
aI63
aa(lp151
I1
aI19
aI85
aa(lp152
I1
aI67
aI44
aI46
aI48
aI51
aI54
aa(lp153
I73
aI46
aa(lp154
I1
aI75
aI63
aa(lp155
I8
aI1
aI18
aI16
aI31
aa(lp156
I64
aI67
aI82
aI51
aI44
aa(lp157
I1
aI2
aI3
aI8
aI41
aI27
aa(lp158
I1
aI3
aI4
aI15
aa(lp159
I27
aI1
aI35
aa(lp160
I16
aI1
aI15
aa(lp161
I1
aI3
aI4
aI6
aa(lp162
I1
aI22
aI31
aa(lp163
I8
aI1
aI19
aa(lp164
I32
aI1
aI67
aI44
aI47
aI85
aa(lp165
I1
aI18
aI9
aa(lp166
I72
aI1
aI75
aa(lp167
I40
aI1
aI15
aI39
aa(lp168
I1
aI3
aI6
aa(lp169
I9
aI18
aI1
aa(lp170
I16
aI9
aI1
aa(lp171
I67
aI47
aI48
aI49
aI50
aI52
aI59
aa(lp172
I27
aI1
aI59
aI44
aI63
aa(lp173
I1
aI58
aI62
aa(lp174
I1
aI43
aI37
aI62
aa(lp175
I67
aI44
aI46
aI50
aI56
aI62
aa(lp176
I67
aI44
aI46
aI49
aI51
aI54
aa(lp177
I9
aI31
aI28
aI85
aI1
aa(lp178
I32
aI1
aI31
aa(lp179
I8
aI1
aI3
aa(lp180
I17
aI63
aI73
aa(lp181
I81
aI51
aI79
aa(lp182
I88
aI1
aI67
aI46
aI47
aa(lp183
I8
aI6
aa(lp184
I40
aI1
aI62
aa(lp185
I27
aI1
aI35
aI36
aa(lp186
I1
aI43
aI37
aI62
aa(lp187
I1
aI44
aI49
aI50
aI51
aI27
aI62
aa(lp188
I1
aI2
aI27
aI6
aI31
aa(lp189
I72
aI73
aI74
aI75
aI44
aI77
aI47
aI76
aI62
aa(lp190
I3
aI1
aI27
aI4
aa(lp191
I8
aI1
aI10
aI3
aa(lp192
I1
aI67
aI47
aI48
aI49
aI59
aI62
aa(lp193
I72
aI62
aI63
aa(lp194
I72
aI1
aI75
aI84
aI63
aa(lp195
I86
aI78
aI47
aa(lp196
I1
aI3
aI6
aa(lp197
I1
aI35
aI36
aa(lp198
I1
aI2
aI67
aI41
aI15
aI62
aa(lp199
I59
aI67
aI51
aa(lp200
I1
aI67
aI47
aI49
aI50
aI51
aI61
aI62
aa(lp201
I1
aI31
aI33
aa(lp202
I48
aI56
aI67
aI51
aI54
aa(lp203
I1
aI18
aI3
aI44
aI85
aa(lp204
I1
aI18
aI4
aa(lp205
I1
aI3
aI5
aa(lp206
I1
aI63
aI73
aa(lp207
I3
aI4
aI6
aa(lp208
I74
aI75
aI76
aI54
aa(lp209
I67
aI44
aI48
aI49
aI51
aI61
aa(lp210
I1
aI28
aI62
aa(lp211
I27
aI1
aI35
aI36
aa(lp212
I67
aI47
aI48
aI49
aI54
aI60
aa(lp213
I1
aI33
aI77
aI27
aI28
aI62
aI31
aa(lp214
I27
aI17
aI15
aI1
aa(lp215
I81
aI82
aI78
aI79
aa(lp216
I1
aI60
aI61
aa(lp217
I1
aI10
aa(lp218
I57
aI67
aI51
aI47
aa(lp219
I1
aI61
aI49
aa(lp220
I1
aI4
aI13
aa(lp221
I1
aI43
aI37
aa(lp222
I27
aI1
aI10
aI19
aI6
aa(lp223
I48
aI49
aI74
aI61
aa(lp224
I9
aI49
aI54
aI1
aa(lp225
I1
aI70
aI47
aI81
aI51
aI84
aI86
aa(lp226
I65
aI72
aI74
aI76
aI47
aI84
aa(lp227
I32
aI1
aI67
aI44
aI47
aa(lp228
I48
aI1
aI50
aI59
aI79
aa(lp229
I1
aI82
aI47
aa(lp230
I1
aI4
aI62
aa(lp231
I40
aI1
aI37
aa(lp232
I73
aI44
aI84
aI27
aI62
aI63
aa(lp233
I8
aI3
aI7
aa(lp234
I72
aI73
aI74
aI76
aI47
aI84
aa(lp235
I17
aI28
aa(lp236
I1
aI3
aI4
aa(lp237
I32
aI1
aI3
aa(lp238
I52
aI53
aI47
aa(lp239
I1
aI10
aI13
aa(lp240
I72
aI17
aI47
aI1
aa(lp241
I1
aI50
aI59
aI62
aI47
aa(lp242
I1
aI67
aI47
aI84
aI59
aI62
aa(lp243
I2
aI3
aI13
aI6
aI15
aa(lp244
I1
aI67
aI73
aI44
aI50
aI47
aI81
aI82
aI51
aI84
aI79
aa(lp245
I56
aI50
aI51
aI60
aI47
aa(lp246
I1
aI42
aI28
aa(lp247
I1
aI28
aI22
aI15
aa(lp248
I56
aI57
aI51
aI47
aa(lp249
I18
aI3
aI4
aa(lp250
I65
aI73
aI76
aI44
aI17
aI84
aI62
aa(lp251
I1
aI67
aI44
aI47
aI48
aI50
aI51
aI62
aa(lp252
I1
aI15
aI22
aI31
aa(lp253
I1
aI67
aI59
aa(lp254
I1
aI18
aI3
aI2
aI62
aa(lp255
I72
aI65
aI61
aI1
aa(lp256
I73
aI74
aI76
aI62
aI44
aa(lp257
I27
aI1
aI3
aI4
aa(lp258
I64
aI86
aI62
aa(lp259
I72
aI1
aI75
aI84
aI63
aa(lp260
I1
aI2
aI3
aI4
aI21
aa(lp261
I17
aI31
aa(lp262
I1
aI52
aI62
aI22
aI31
aa(lp263
I8
aI1
aI10
aI3
aI4
aa(lp264
I81
aI79
aI44
aI78
aI47
aa(lp265
I1
aI67
aI44
aI54
aI58
aI62
aa(lp266
I18
aI62
aI63
aa(lp267
I27
aI1
aI67
aI54
aI62
aa(lp268
I1
aI35
aI62
aa(lp269
I8
aI18
aa(lp270
I72
aI1
aI77
aa(lp271
I56
aI67
aI51
aI54
aa(lp272
I8
aI1
aI10
aI3
aa(lp273
I24
aI21
aI22
aa(lp274
I48
aI67
aI50
aI51
aI49
aa(lp275
I64
aI84
aI63
aa(lp276
I64
aI1
aI72
aI73
aI74
aI76
aa(lp277
I67
aI44
aI47
aI51
aI52
aI53
aI62
aa(lp278
I72
aI1
aI67
aI61
aa(lp279
I40
aI1
aI37
aa(lp280
I1
aI3
aI46
aI62
aa(lp281
I1
aI33
aI7
aI77
aI27
aI31
aa(lp282
I1
aI27
aI77
aa(lp283
I64
aI3
aI70
aa(lp284
I9
aI28
aI1
aa(lp285
I17
aI65
aa(lp286
I27
aI1
aI3
aI6
aa(lp287
I8
aI3
aI6
aa(lp288
I5
aI14
aa(lp289
I1
aI43
aI44
aI15
aI27
aI62
aa(lp290
I72
aI73
aI75
aI62
aa(lp291
I1
aI18
aI42
aa(lp292
I8
aI9
aI10
aa(lp293
I1
aI34
aa(lp294
I59
aI51
aa(lp295
I16
aI1
aI22
aa(lp296
I1
aI67
aI72
aI75
aI76
aI84
aI62
aa(lp297
I88
aI84
aI62
aI63
aa(lp298
I82
aI44
aI78
aa(lp299
I33
aI1
aI31
aa(lp300
I72
aI74
aI76
aa(lp301
I1
aI35
aa(lp302
I64
aI1
aI67
aI79
aI82
aI51
aI84
aI86
aI62
aa(lp303
I1
aI34
aa(lp304
I1
aI42
aI9
aa(lp305
I64
aI1
aI72
aI75
aI84
aI63
aa(lp306
I1
aI43
aI37
aa(lp307
I3
aI8
aI11
aa(lp308
I51
aI61
aI54
aI79
aa(lp309
I1
aI75
aI84
aI63
aa(lp310
I81
aI70
aa(lp311
I1
aI3
aI6
aI8
aI10
aI11
aI77
aI14
aI27
aa(lp312
I8
aI1
aI10
aI3
aI6
aa(lp313
I67
aI72
aI47
aI81
aI51
aI53
aI62
aa(lp314
I1
aI7
aa(lp315
I8
aI1
aI27
aI47
aI31
aa(lp316
I67
aI44
aI47
aI48
aI49
aI54
aa(lp317
I49
aI44
aI79
aa(lp318
I1
aI25
aa(lp319
I72
aI73
aI85
aI63
aa(lp320
I1
aI42
aa(lp321
I64
aI9
aa(lp322
I64
aI1
aI75
aI44
aI46
aI63
aI62
aI31
aa(lp323
I64
aI1
aI10
aI3
aI31
aa(lp324
I18
aI11
aa(lp325
I1
aI67
aI44
aI47
aI49
aI59
aa(lp326
I8
aI1
aI3
aI6
aa(lp327
I1
aI3
aI6
aI52
aI55
aI28
aI31
aa(lp328
I8
aI1
aI5
aa(lp329
I67
aI59
aa(lp330
I1
aI67
aI44
aI47
aI48
aI49
aI54
aI59
aa(lp331
I65
aI75
aI84
aI77
aa(lp332
I40
aI1
aI39
aa(lp333
I64
aI2
aI72
aI75
aI47
aI82
aI62
aI63
aa(lp334
I1
aI18
aI79
aa(lp335
I67
aI73
aI74
aI75
aI44
aI47
aI62
aI63
aa(lp336
I1
aI27
aI35
aa(lp337
I1
aI51
aI79
aa(lp338
I64
aI1
aI78
aI47
aI51
aI86
aI62
aI63
aa(lp339
I1
aI75
aI70
aa(lp340
I40
aI1
aI15
aI44
aI39
aa(lp341
I1
aI67
aI47
aI50
aI51
aI54
aa(lp342
I6
aI3
aI13
aI14
aa(lp343
I64
aI67
aI44
aI46
aI17
aI86
aa(lp344
I64
aI72
aI73
aI74
aI76
aI84
aI62
aI63
aa(lp345
I1
aI27
aI4
aa(lp346
I1
aI43
aI37
aa(lp347
I72
aI84
aI74
aI76
aI62
aa(lp348
I1
aI90
aI81
aa(lp349
I8
aI10
aI3
aI14
aa(lp350
I40
aI1
aI72
aI39
aa(lp351
I1
aI85
aI6
aI15
aa(lp352
I17
aI10
aI3
aa(lp353
I64
aI1
aI3
aI84
aI6
aa(lp354
I56
aI48
aI67
aI44
aI47
aa(lp355
I72
aI65
aI75
aa(lp356
I16
aI1
aI18
aa(lp357
I1
aI37
aI33
aI43
aI15
aI27
aI62
aa(lp358
I17
aI84
aI60
aa(lp359
I73
aI27
aI84
aI77
aI87
aa(lp360
I1
aI33
aI72
aI75
aI47
aI17
aI63
aa(lp361
I65
aI75
aI17
aI63
aa(lp362
I32
aI1
aI3
aI6
aI31
aa(lp363
I72
aI73
aI74
aI76
aI84
aI62
aa(lp364
I84
aI50
aI51
aI44
aa(lp365
I1
aI3
aI4
aI8
aI55
aI28
aI62
aI31
aa(lp366
I1
aI75
aI62
aI31
aa(lp367
I27
aI1
aI35
aa(lp368
I1
aI44
aI65
aa(lp369
I9
aI42
aI1
aa(lp370
I1
aI67
aI62
aI59
aI47
aa(lp371
I48
aI56
aI67
aI54
aI47
aa(lp372
I1
aI42
aI3
aI9
aa(lp373
I51
aI50
aI67
aI54
aI47
aa(lp374
I1
aI27
aI52
aa(lp375
I44
aI27
aI28
aI62
aI1
aa(lp376
I1
aI85
aI46
aa(lp377
I27
aI1
aI3
aI6
aI8
aa(lp378
I48
aI1
aI61
aa(lp379
I64
aI1
aI67
aI77
aI78
aI79
aI81
aI82
aI47
aI62
aa(lp380
I52
aI53
aI55
aa(lp381
I1
aI35
aI36
aa(lp382
I72
aI84
aI74
aI76
aI47
aa(lp383
I32
aI1
aI3
aI6
aa(lp384
I72
aI1
aI3
aI31
aa(lp385
I48
aI1
aI67
aI51
aa(lp386
I31
aI1
aI27
aI85
aI7
aa(lp387
I40
aI1
aI3
aa(lp388
I73
aI18
aa(lp389
I49
aI67
aI53
aa(lp390
I8
aI1
aI3
aI6
aa(lp391
I40
aI1
aI39
aa(lp392
I64
aI88
aI62
aI47
aa(lp393
I64
aI65
aI44
aI17
aI84
aI86
aa(lp394
I48
aI67
aI44
aI54
aI47
aa(lp395
I1
aI67
aI44
aI47
aI48
aI49
aI51
aI62
aa(lp396
I1
aI73
aI44
aI77
aI47
aI86
aI27
aI62
aI31
aa(lp397
I32
aI1
aI67
aI44
aI46
aa(lp398
I8
aI1
aI3
aI60
aa(lp399
I64
aI33
aI72
aI73
aI44
aI84
aI86
aa(lp400
I1
aI77
aI6
aI31
aa(lp401
I1
aI18
aI2
aI33
aa(lp402
I1
aI21
aI15
aa(lp403
I48
aI59
aI47
aa(lp404
I64
aI65
aI1
aI44
aI17
aI84
aI86
aI62
aa(lp405
I1
aI44
aI86
aI46
aI47
aa(lp406
I17
aI73
aI65
aa(lp407
I64
aI84
aI51
aI44
aI79
aa(lp408
I1
aI77
aI31
aa(lp409
I74
aI75
aI76
aa(lp410
I1
aI2
aI65
aI72
aI78
aI47
aI82
aI27
aa(lp411
I1
aI51
aI85
aI54
aa(lp412
I8
aI3
aI13
aa(lp413
I72
aI17
aI74
aI76
aa(lp414
I67
aI50
aI78
aI79
aI81
aI82
aI51
aI53
aI55
aI62
aa(lp415
I67
aI47
aI48
aI49
aI84
aI54
aI57
aa(lp416
I1
aI67
aI37
aI43
aI15
aI28
aa(lp417
I72
aI73
aI74
aI76
aI77
aa(lp418
I65
aI84
aI1
aa(lp419
I32
aI1
aI43
aI44
aI27
aI62
aa(lp420
I40
aI1
aI39
aa(lp421
I81
aI67
aI51
aI82
aa(lp422
I1
aI67
aI44
aI46
aI49
aI51
aI59
aI62
aa(lp423
I17
aI51
aI44
aI81
aa(lp424
I88
aI1
aI51
aI55
aa(lp425
I8
aI1
aI18
aa(lp426
I32
aI1
aI67
aI64
aI46
aI47
aI48
aI55
aI61
aI62
aa(lp427
I1
aI67
aI84
aI77
aI62
aa(lp428
I81
aI44
aI70
aa(lp429
I81
aI90
aI44
aa(lp430
I8
aI18
aI3
aI34
aI15
aa(lp431
I1
aI47
aI77
aI86
aI63
aa(lp432
I73
aI75
aI44
aI87
aa(lp433
I1
aI67
aI77
aI47
aI87
aI62
aa(lp434
I81
aI50
aI78
aI79
aI49
aI82
aa(lp435
I9
aI28
aI1
aa(lp436
I1
aI43
aI37
aI6
aa(lp437
I8
aI1
aI36
aa(lp438
I73
aI77
aI62
aI1
aa(lp439
I9
aI28
aI1
aa(lp440
I72
aI73
aI74
aI76
aI62
aa(lp441
I1
aI73
aI75
aI44
aI77
aI62
aa(lp442
I51
aI86
aI70
aa(lp443
I1
aI2
aI7
aa(lp444
I3
aI1
aI19
aI8
aa(lp445
I48
aI59
aI47
aa(lp446
I11
aI3
aI13
aa(lp447
I16
aI1
aI85
aI15
aa(lp448
I67
aI60
aI61
aa(lp449
I40
aI1
aI39
aa(lp450
I1
aI3
aI6
aI31
aa(lp451
I65
aI75
aI62
aI33
aa(lp452
I1
aI74
aI76
aI62
aa(lp453
I1
aI82
aI3
aa(lp454
I72
aI74
aI76
aI62
aa(lp455
I32
aI88
aI84
aI1
aa(lp456
I11
aI1
aI10
aI3
aI6
aa(lp457
I1
aI47
aI85
aI59
aI62
aI63
aa(lp458
I67
aI47
aI48
aI50
aI51
aI54
aI61
aa(lp459
I1
aI57
aI87
aa(lp460
I1
aI65
aI72
aI84
aI85
aI62
aa(lp461
I8
aI27
aI3
aI31
aI1
aa(lp462
I72
aI65
aI62
aa(lp463
I1
aI31
aI7
aa(lp464
I72
aI67
aI2
aI75
aI63
aa(lp465
I72
aI17
aI73
aa(lp466
I16
aI1
aI42
aI28
aa(lp467
I64
aI73
aI67
aI76
aI62
aa(lp468
I9
aI2
aI14
aa(lp469
I50
aI59
aI79
aa(lp470
I57
aI51
aI55
aa(lp471
I1
aI28
aI22
aa(lp472
I1
aI67
aI61
aa(lp473
I64
aI1
aI67
aI75
aI44
aI62
aI63
aa(lp474
I72
aI17
aI1
aa(lp475
I67
aI79
aI44
aI78
aI47
aa(lp476
I1
aI44
aI62
aI73
aI47
aa(lp477
I1
aI3
aI4
aI6
aI8
aI41
aI10
aa(lp478
I64
aI1
aI73
aI44
aI86
aI62
aa(lp479
I67
aI50
aI51
aI53
aI54
aI57
aa(lp480
I73
aI67
aI51
aa(lp481
I1
aI67
aI44
aI77
aI46
aI62
aa(lp482
I67
aI59
aI62
aa(lp483
I67
aI44
aI47
aI50
aI84
aI85
aI31
aI62
aI63
aa(lp484
I48
aI75
aI67
aI44
aI54
aa(lp485
I72
aI73
aI76
aI84
aa(lp486
I67
aI44
aI47
aI84
aI27
aI60
aI62
aa(lp487
I48
aI49
aI54
aa(lp488
I1
aI77
aI48
aI49
aI54
aI62
aa(lp489
I49
aI58
aI67
aI46
aa(lp490
I17
aI74
aI67
aI62
aI73
aa(lp491
I88
aI67
aI44
aI62
aI47
aa(lp492
I1
aI75
aI84
aI85
aI90
aI63
aa(lp493
I8
aI1
aI6
aa(lp494
I16
aI9
aI3
aI1
aa(lp495
I65
aI27
aI44
aI1
aa(lp496
I1
aI3
aI4
aI8
aI14
aI15
aI27
aa(lp497
I88
aI32
aI28
aI84
aI63
aa(lp498
I72
aI76
aI54
aa(lp499
I67
aI48
aI50
aI51
aI56
aI57
aI62
aa(lp500
I72
aI74
aI75
aI76
aI77
aa(lp501
I49
aI67
aI54
aa(lp502
I1
aI75
aI63
aI73
aa(lp503
I1
aI67
aI46
aI47
aI59
aI62
aa(lp504
I1
aI19
aI77
aa(lp505
I1
aI2
aI27
aa(lp506
I72
aI74
aI76
aI77
aa(lp507
I1
aI3
aI8
aI10
aI27
aI31
aa(lp508
I1
aI84
aI65
aI33
aa(lp509
I1
aI67
aI73
aI76
aI46
aI47
aI62
aa(lp510
I8
aI9
aI3
aI1
aa(lp511
I40
aI1
aI37
aI39
aa(lp512
I1
aI67
aI44
aI46
aI47
aI48
aI49
aI50
aI86
aI62
aI63
aa(lp513
I50
aI61
aa(lp514
I72
aI75
aI62
aa(lp515
I1
aI3
aI6
aI10
aI15
aI27
aa(lp516
I1
aI85
aI15
aa(lp517
I1
aI59
aI49
aI63
aa(lp518
I1
aI6
aI31
aa(lp519
I27
aI1
aI15
aI33
aI31
aa(lp520
I72
aI73
aI74
aI76
aI84
aa(lp521
I1
aI67
aI44
aI46
aI48
aI49
aI51
aI62
aa(lp522
I67
aI72
aI74
aI84
aI86
aI62
aI63
aa(lp523
I8
aI9
aI77
aI1
aa(lp524
I32
aI1
aI59
aa(lp525
I1
aI10
aI3
aI31
aa(lp526
I44
aI77
aI78
aI79
aI81
aI47
aa(lp527
I32
aI1
aI10
aI3
aI8
aa(lp528
I1
aI73
aI74
aI76
aI77
aI52
aI61
aI62
aa(lp529
I3
aI28
aI6
aa(lp530
I82
aI67
aI62
aa(lp531
I64
aI1
aI42
aa(lp532
I1
aI28
aI78
aa(lp533
I1
aI35
aI36
aa(lp534
I1
aI3
aI6
aI15
aa(lp535
I65
aI33
aI1
aa(lp536
I59
aI67
aI62
aa(lp537
I16
aI1
aI51
aI21
aa(lp538
I65
aI18
aI51
aa(lp539
I18
aI3
aI2
aI15
aa(lp540
I19
aI21
aa(lp541
I1
aI67
aI49
aI82
aI51
aI59
aa(lp542
I18
aI44
aI70
aa(lp543
I1
aI2
aI28
aI38
aI33
aa(lp544
I8
aI10
aI6
aa(lp545
I88
aI67
aI61
aa(lp546
I1
aI72
aI73
aI74
aI76
aI85
aI62
aa(lp547
I72
aI74
aI76
aI47
aI18
aI84
aa(lp548
I1
aI38
aI31
aa(lp549
I1
aI42
aI15
aa(lp550
I8
aI1
aI10
aI3
aa(lp551
I1
aI70
aI81
aa(lp552
I73
aI44
aI79
aI81
aI50
aI51
aI85
aI47
aa(lp553
I1
aI76
aI65
aI73
aa(lp554
I3
aI1
aI19
aI8
aa(lp555
I1
aI84
aI62
aI73
aa(lp556
I1
aI72
aI73
aI76
aI47
aI52
aI55
aa(lp557
I1
aI67
aI46
aI47
aI48
aI49
aI50
aI62
aa(lp558
I27
aI1
aI3
aI8
aI41
aa(lp559
I1
aI67
aI44
aI50
aI79
aI49
aI82
aI84
aI85
aI62
aa(lp560
I1
aI67
aI49
aI72
aI77
aI78
aI47
aI81
aI50
aI51
aI79
aI61
aa(lp561
I8
aI3
aI5
aa(lp562
I1
aI19
aI13
aa(lp563
I48
aI54
aI47
aa(lp564
I16
aI1
aI50
aI79
aI49
aa(lp565
I1
aI3
aI4
aa(lp566
I1
aI38
aI15
aa(lp567
I51
aI15
aI44
aI62
aI47
aa(lp568
I44
aI50
aI78
aI79
aI81
aI82
aI51
aI47
aI61
aa(lp569
I3
aa(lp570
I24
aI1
aI2
aI27
aa(lp571
I40
aI1
aI37
aI39
aa(lp572
I1
aI67
aI44
aI46
aI27
aI62
aa(lp573
I72
aI73
aI74
aI76
aI77
aI84
aI85
aa(lp574
I16
aI1
aI28
aI62
aa(lp575
I1
aI42
aa(lp576
I1
aI3
aI13
aa(lp577
I1
aI35
aa(lp578
I1
aI67
aI47
aI49
aI59
aI62
aa(lp579
I88
aI37
aa(lp580
I48
aI57
aI50
aI46
aI49
aa(lp581
I72
aI74
aI75
aI76
aa(lp582
I65
aI75
aI1
aa(lp583
I1
aI42
aa(lp584
I1
aI77
aI33
aI6
aI7
aa(lp585
I1
aI58
aa(lp586
I1
aI67
aI77
aI47
aI50
aI51
aI63
aa(lp587
I44
aI78
aI47
aI81
aI18
aI51
aa(lp588
I1
aI42
aI38
aa(lp589
I56
aI59
aI79
aa(lp590
I17
aI15
aa(lp591
I17
aI62
aa(lp592
I64
aI1
aI67
aI75
aI17
aI82
aI84
aI62
aI63
aa(lp593
I3
aI13
aa(lp594
I1
aI27
aI38
aa(lp595
I64
aI1
aI2
aI3
aI8
aI11
aI14
aI67
aI86
aI62
aa(lp596
I10
aI3
aI13
aI14
aa(lp597
I9
aI1
aa(lp598
I1
aI67
aI44
aI46
aI47
aI48
aI49
aI51
aI59
aa(lp599
I3
aI13
aa(lp600
I1
aI18
aI3
aI38
aa(lp601
I18
aI51
aa(lp602
I51
aI55
aa(lp603
I1
aI3
aI4
aa(lp604
I10
aI3
aI13
aa(lp605
I32
aI1
aI33
aI7
aI27
aI31
aa(lp606
I48
aI49
aI56
aa(lp607
I40
aI1
aI39
aa(lp608
I72
aI74
aI76
aa(lp609
I32
aI1
aa(lp610
I1
aI36
aa(lp611
I74
aI76
aa(lp612
I88
aI1
aI62
aa(lp613
I72
aI73
aI74
aI76
aI47
aI62
aa(lp614
I72
aI78
aI81
aI82
aI51
aI85
aI62
aa(lp615
I48
aI49
aI67
aI57
aa(lp616
I1
aI77
aI15
aI18
aI84
aI27
aa(lp617
I64
aI73
aI74
aI44
aI65
aa(lp618
I32
aI1
aI46
aa(lp619
I81
aI44
aI70
aa(lp620
I1
aI2
aI3
aI13
aa(lp621
I16
aI79
aa(lp622
I1
aI35
aa(lp623
I1
aI78
aI79
aa(lp624
I50
aI51
aI44
aa(lp625
I8
aI1
aI10
aa(lp626
I48
aI56
aI67
aI46
aa(lp627
I1
aI49
aI44
aI50
aI79
aI81
aI82
aI51
aI85
aI62
aa(lp628
I67
aI51
aI46
aI54
aI47
aa(lp629
I72
aI85
aI62
aI15
aa(lp630
I1
aI72
aI75
aI84
aI62
aI63
aa(lp631
I51
aI67
aI52
aa(lp632
I1
aI67
aI15
aI44
aI78
aI47
aI82
aI51
aI59
aI62
aa(lp633
I1
aI67
aI44
aI47
aI48
aI51
aI59
aa(lp634
I67
aI47
aI48
aI49
aI50
aI54
aa(lp635
I65
aI1
aI47
aI84
aI85
aI31
aa(lp636
I72
aI73
aI74
aI44
aI47
aI76
aa(lp637
I1
aI67
aI44
aI46
aI47
aI48
aI49
aI50
aI51
aI78
aa(lp638
I48
aI49
aI67
aI51
aa(lp639
I1
aI77
aI65
aa(lp640
I1
aI72
aI73
aI74
aI76
aI62
aI31
aa(lp641
I1
aI34
aI31
aa(lp642
I1
aI67
aI62
aI59
aa(lp643
I32
aI1
aI67
aI77
aI47
aI62
aa(lp644
I64
aI1
aI75
aI44
aI18
aI84
aI63
aa(lp645
I40
aI1
aI39
aa(lp646
I17
aI2
aI15
aa(lp647
I72
aI65
aI18
aa(lp648
I1
aI41
aa(lp649
I1
aI67
aI44
aI46
aa(lp650
I1
aI6
aI31
aa(lp651
I82
aI51
aI44
aa(lp652
I1
aI51
aI60
aa(lp653
I1
aI35
aI9
aa(lp654
I81
aI49
aI44
aI82
aI78
aI79
aI17
aI50
aI85
aI86
aI62
aa(lp655
I64
aI47
aI51
aI84
aI85
aI86
aI62
aI63
aa(lp656
I1
aI18
aI84
aI89
aa(lp657
I67
aI44
aI79
aI81
aI82
aI51
aI52
aI85
aI55
aI47
aI62
aI53
aa(lp658
I1
aI6
aI7
aI77
aI27
aI31
aa(lp659
I1
aI3
aI38
aa(lp660
I64
aI1
aI67
aI72
aI73
aI75
aI44
aI51
aI84
aI62
aI63
aa(lp661
I1
aI67
aI59
aI47
aa(lp662
I1
aI28
aI15
aa(lp663
I1
aI51
aI73
aI63
aa(lp664
I72
aI44
aI74
aI75
aI76
aI84
aI73
aI62
aa(lp665
I1
aI27
aI38
aa(lp666
I1
aI47
aI25
aa(lp667
I1
aI82
aI59
aI62
aI49
aa(lp668
I76
aI77
aa(lp669
I1
aI75
aI62
aa(lp670
I32
aI1
aI77
aa(lp671
I8
aI1
aI38
aa(lp672
I64
aI67
aI44
aI47
aI49
aI50
aI51
aI54
aa(lp673
I1
aI2
aI77
aI6
aa(lp674
I1
aI43
aI62
aa(lp675
I67
aI47
aI48
aI49
aI50
aI51
aI84
aI54
aI62
aa(lp676
I32
aI1
aI2
aI67
aI7
aI73
aI10
aI15
aI27
aI62
aa(lp677
I17
aI44
aI86
aI81
aa(lp678
I64
aI1
aI3
aI6
aa(lp679
I32
aI1
aI72
aI75
aI17
aI63
aa(lp680
I1
aI31
aI77
aI7
aa(lp681
I1
aI3
aI38
aa(lp682
I8
aI1
aI2
aI3
aa(lp683
I1
aI3
aI52
aI51
aa(lp684
I57
aI50
aI1
aI44
aI79
aa(lp685
I67
aI72
aI73
aI75
aI17
aI84
aI62
aa(lp686
I1
aI44
aI54
aa(lp687
I64
aI1
aI3
aI8
aI10
aI15
aa(lp688
I72
aI51
aI75
aI62
aI63
aa(lp689
I1
aI67
aI47
aI48
aI49
aI59
aa(lp690
I73
aI3
aI47
aa(lp691
I1
aI67
aI46
aI47
aI56
aI57
aa(lp692
I48
aI67
aI51
aI54
aa(lp693
I27
aI1
aI35
aI36
aI8
aa(lp694
I1
aI67
aI85
aa(lp695
I17
aI73
aI65
aa(lp696
I17
aI62
aI73
aa(lp697
I1
aI59
aI49
aI87
aa(lp698
I8
aI1
aI3
aI5
aa(lp699
I1
aI10
aI6
aa(lp700
I1
aI27
aI4
aa(lp701
I64
aI18
aI3
aa(lp702
I1
aI58
aI67
aI62
aI47
aa(lp703
I67
aI72
aI73
aI75
aI51
aI84
aI27
aI63
aa(lp704
I8
aI3
aI13
aa(lp705
I1
aI33
aI7
aa(lp706
I1
aI44
aI79
aI49
aI51
aI55
aa(lp707
I40
aI1
aI39
aa(lp708
I1
aI67
aI72
aI73
aI47
aI84
aI62
aa(lp709
I1
aI77
aI9
aa(lp710
I1
aI18
aI9
aa(lp711
I16
aI8
aI3
aa(lp712
I40
aI1
aI39
aa(lp713
I1
aI28
aI31
aa(lp714
I1
aI82
aI78
aa(lp715
I1
aI27
aI44
aI38
aI31
aa(lp716
I3
aI6
aI7
aa(lp717
I67
aI78
aI79
aI81
aI82
aI62
aa(lp718
I8
aI1
aI3
aI4
aa(lp719
I73
aI75
aI44
aa(lp720
I1
aI67
aI44
aI61
aI49
aa(lp721
I1
aI67
aI44
aI46
aI47
aI48
aI49
aI59
aa(lp722
I67
aI51
aI53
aI55
aa(lp723
I16
aI1
aI62
aI15
aa(lp724
I8
aI9
aI3
aa(lp725
I1
aI3
aI4
aI21
aa(lp726
I1
aI22
aa(lp727
I57
aI67
aI47
aa(lp728
I67
aI44
aI77
aI47
aI51
aI59
aa(lp729
I1
aI28
aI62
aa(lp730
I64
aI1
aI3
aI13
aI6
aa(lp731
I1
aI67
aI62
aI47
aa(lp732
I1
aI72
aI73
aI47
aI50
aI62
aa(lp733
I27
aI1
aI3
aI38
aa(lp734
I1
aI72
aI74
aI76
aI77
aI47
aI51
aI84
aI62
aa(lp735
I1
aI67
aI47
aI59
aI31
aa(lp736
I11
aI1
aI3
aI28
aI13
aa(lp737
I1
aI67
aI73
aI44
aI77
aI47
aI59
aa(lp738
I1
aI37
aI39
aa(lp739
I1
aI3
aI6
aa(lp740
I32
aI33
aI1
aI85
aI27
aI31
aa(lp741
I1
aI72
aI75
aI17
aI8
aI62
aI63
aa(lp742
I56
aI57
aI54
aa(lp743
I1
aI2
aI27
aI44
aa(lp744
I8
aI10
aI3
aa(lp745
I31
aI17
aI27
aI33
aa(lp746
I1
aI67
aI44
aI46
aI61
aI62
aa(lp747
I1
aI43
aI37
aI62
aa(lp748
I52
aI31
aI4
aI1
aa(lp749
I1
aI67
aI47
aI48
aI51
aI59
aI62
aa(lp750
I1
aI62
aI65
aa(lp751
I48
aI67
aI61
aa(lp752
I1
aI58
aI47
aa(lp753
I1
aI78
aI85
aI77
aI47
aa(lp754
I67
aI47
aI48
aI49
aI59
aI62
aa(lp755
I81
aI70
aI47
aa(lp756
I1
aI52
aI33
aa(lp757
I1
aI75
aI63
aa(lp758
I88
aI65
aI86
aI73
aI1
aa(lp759
I72
aI81
aI79
aa(lp760
I1
aI74
aI77
aI62
aI73
aa(lp761
I2
aI3
aI44
aI85
aI62
aa(lp762
I72
aI73
aI74
aI76
aI47
aI84
aI62
aa(lp763
I1
aI28
aI62
aI15
aa(lp764
I1
aI35
aI36
aa(lp765
I32
aI1
aI48
aI50
aI61
aI62
aa(lp766
I72
aI44
aI84
aI62
aI47
aa(lp767
I27
aI1
aI35
aa(lp768
I48
aI73
aI67
aI76
aI61
aa(lp769
I1
aI2
aI41
aa(lp770
I31
aI1
aI3
aI15
aa(lp771
I67
aI51
aI52
aI53
aI54
aI55
aI57
aa(lp772
I40
aI1
aI39
aa(lp773
I1
aI10
aI3
aI6
aa(lp774
I72
aI75
aI16
aI17
aI18
aI84
aa(lp775
I1
aI2
aI27
aa(lp776
I1
aI22
aI62
aa(lp777
I1
aI3
aI4
aa(lp778
I64
aI88
aI84
aI70
aa(lp779
I64
aI1
aI67
aI85
aI27
aI62
aI63
aa(lp780
I64
aI65
aI72
aI73
aI75
aI62
aa(lp781
I1
aI67
aI44
aI46
aI47
aI51
aI62
aa(lp782
I50
aI51
aI54
aa(lp783
I49
aI79
aI53
aI61
aa(lp784
I1
aI72
aI73
aI74
aI44
aI77
aI47
aI76
aI62
aa(lp785
I8
aI2
aI3
aI10
aa(lp786
I49
aI44
aI78
aI79
aI48
aI81
aI51
aa(lp787
I72
aI1
aI75
aI77
aa(lp788
I72
aI74
aI76
aa(lp789
I40
aI1
aI39
aa(lp790
I1
aI27
aI4
aa(lp791
I11
aI8
aI3
aa(lp792
I65
aI60
aI1
aa(lp793
I64
aI1
aI3
aI8
aI28
aI62
aa(lp794
I67
aI10
aI3
aI28
aI15
aa(lp795
I81
aI44
aI70
aa(lp796
I48
aI54
aI47
aa(lp797
I10
aI3
aI6
aa(lp798
I1
aI53
aI55
aa(lp799
I1
aI10
aI3
aI31
aa(lp800
I33
aI44
aI79
aI81
aI50
aI27
aI31
aa(lp801
I17
aI1
aI73
aI63
aa(lp802
I56
aI51
aI44
aa(lp803
I27
aI1
aI35
aI36
aI6
aa(lp804
I16
aI1
aI3
aI6
aa(lp805
I32
aI1
aI46
aa(lp806
I81
aI82
aI78
aI79
aa(lp807
I64
aI1
aI81
aI44
aI78
aI79
aI49
aI82
aI51
aI53
aI54
aI55
aa(lp808
I1
aI10
aI3
aa(lp809
I1
aI67
aI62
aI87
aa(lp810
I1
aI67
aI44
aI78
aI47
aI81
aI51
aI84
aI86
aI59
aa(lp811
I1
aI67
aI75
aI44
aI47
aI81
aI51
aI59
aI62
aa(lp812
I7
aI72
aI73
aI74
aI44
aI76
aI62
aa(lp813
I51
aI50
aI67
aa(lp814
I67
aI47
aI51
aI54
aI58
aI62
aa(lp815
I67
aI44
aI51
aI84
aI56
aI62
aa(lp816
I8
aI10
aI3
aa(lp817
I1
aI72
aI9
aI88
aI90
aI62
aI63
aa(lp818
I1
aI6
aI31
aa(lp819
I9
aI28
aI62
aa(lp820
I27
aI1
aI3
aI21
aa(lp821
I1
aI67
aI49
aI50
aI51
aI61
aI62
aa(lp822
I1
aI67
aI47
aI49
aI61
aI62
aa(lp823
I67
aI86
aI62
aa(lp824
I8
aI1
aI3
aI52
aa(lp825
I17
aI33
aI31
aa(lp826
I1
aI75
aI62
aa(lp827
I64
aI67
aI44
aI47
aI84
aI86
aI55
aI79
aI62
aa(lp828
I64
aI2
aI3
aI4
aI8
aI67
aI62
aa(lp829
I1
aI58
aI84
aI62
aa(lp830
I64
aI1
aI3
aI10
aI85
aI27
aa(lp831
I1
aI10
aI31
aa(lp832
I1
aI75
aI63
aa(lp833
I88
aI50
aI67
aI54
aI15
aa(lp834
I72
aI17
aI74
aI76
aa(lp835
I67
aI44
aI78
aI79
aI81
aI52
aI84
aI47
aI62
aI31
aa(lp836
I1
aI67
aI62
aI46
aa(lp837
I40
aI1
aI39
aa(lp838
I72
aI17
aI84
aI62
aa(lp839
I64
aI67
aI44
aI84
aI59
aI62
aa(lp840
I8
aI1
aI13
aa(lp841
I1
aI75
aI44
aI47
aI62
aI31
aa(lp842
I1
aI67
aI59
aI31
aa(lp843
I24
aI22
aa(lp844
I1
aI3
aI37
aI43
aI39
aa(lp845
I48
aI59
aI67
aI1
aa(lp846
I58
aI67
aI47
aa(lp847
I8
aI1
aI3
aa(lp848
I1
aI84
aI61
aI62
aa(lp849
I1
aI31
aI25
aa(lp850
I1
aI18
aI27
aI47
aa(lp851
I1
aI44
aI37
aI62
aa(lp852
I8
aI1
aI42
aI3
aI6
aa(lp853
I72
aI1
aI47
aI62
aI63
aa(lp854
I1
aI72
aI73
aI74
aI47
aI62
aI31
aa(lp855
I1
aI2
aI37
aI63
aI62
aI31
aa(lp856
I8
aI1
aI3
aI85
aa(lp857
I50
aI44
aI78
aI79
aa(lp858
I50
aI67
aI54
aI47
aa(lp859
I1
aI3
aI38
aI31
aa(lp860
I1
aI31
aI15
aa(lp861
I1
aI65
aI72
aI76
aI46
aI84
aI62
aa(lp862
I1
aI75
aI84
aa(lp863
I1
aI3
aI36
aa(lp864
I65
aI84
aI62
aa(lp865
I72
aI73
aI74
aI76
aa(lp866
I64
aI1
aI75
aI44
aI51
aI63
aa(lp867
I8
aI1
aI10
aI3
aa(lp868
I1
aI58
aI3
aa(lp869
I72
aI73
aI74
aI44
aI76
aI84
aa(lp870
I1
aI27
aI33
aI31
aa(lp871
I50
aI67
aI61
aa(lp872
I48
aI57
aI50
aI67
aI47
aa(lp873
I8
aI5
aa(lp874
I8
aI1
aI5
aa(lp875
I8
aI1
aI52
aa(lp876
I1
aI27
aI38
aa(lp877
I1
aI34
aI44
aa(lp878
I56
aI57
aI67
aI55
aa(lp879
I72
aI17
aI51
aa(lp880
I81
aI44
aI70
aa(lp881
I49
aI78
aa(lp882
I1
aI20
aa(lp883
I1
aI46
aI48
aI49
aI50
aI51
aI59
aa(lp884
I16
aI1
aI31
aa(lp885
I17
aI75
aI63
aI1
aa(lp886
I1
aI2
aI3
aI34
aI15
aa(lp887
I1
aI42
aI27
aI44
aa(lp888
I73
aI75
aI77
aa(lp889
I1
aI6
aa(lp890
I3
aI6
aa(lp891
I72
aI44
aI16
aI17
aI18
aI84
aa(lp892
I40
aI1
aI37
aa(lp893
I1
aI63
aI62
aI47
aa(lp894
I65
aI84
aI1
aa(lp895
I17
aI75
aa(lp896
I1
aI34
aa(lp897
I48
aI67
aI47
aa(lp898
I48
aI67
aa(lp899
I75
aI84
aI62
aI63
aa(lp900
I1
aI34
aI44
aI31
aa(lp901
I1
aI35
aI36
aa(lp902
I3
aI13
aa(lp903
I1
aI27
aI35
aa(lp904
I8
aI1
aI2
aI62
aa(lp905
I1
aI67
aI44
aI47
aI50
aI51
aa(lp906
I1
aI31
aI25
aa(lp907
I1
aI3
aI6
aI31
aa(lp908
I1
aI5
aI77
aa(lp909
I1
aI3
aI28
aa(lp910
I17
aI2
aa(lp911
I1
aI3
aI4
aI31
aa(lp912
I73
aI74
aI84
aI62
aI47
aa(lp913
I9
aI1
aI7
aa(lp914
I8
aI1
aa(lp915
I64
aI67
aI72
aI44
aI46
aI79
aI81
aI84
aI86
aI47
aI62
aa(lp916
I1
aI27
aI36
aI35
aa(lp917
I27
aI62
aI63
aa(lp918
I67
aI47
aI48
aI49
aI51
aI59
aa(lp919
I27
aI77
aa(lp920
I1
aI44
aI50
aI77
aI81
aI82
aI79
aa(lp921
I1
aI43
aI37
aI62
aa(lp922
I64
aI1
aI75
aI62
aa(lp923
I64
aI1
aI67
aI75
aI44
aI62
aI63
aa(lp924
I17
aI81
aI78
aI79
aI49
aI82
aa(lp925
I1
aI31
aI15
aa(lp926
I1
aI47
aI81
aI78
aI79
aa(lp927
I1
aI35
aI15
aa(lp928
I17
aI67
aI84
aI62
aa(lp929
I64
aI67
aI81
aI78
aI79
aI49
aI85
aI62
aa(lp930
I51
aI82
aI47
aI78
aI79
aa(lp931
I1
aI67
aI44
aI77
aI46
aI47
aI48
aI51
aI61
aI62
aI63
aa(lp932
I79
aI53
aI55
aa(lp933
I48
aI57
aI51
aI61
aI54
aa(lp934
I1
aI67
aI72
aI17
aI84
aI62
aa(lp935
I72
aI67
aI84
aI62
aI63
aa(lp936
I56
aI57
aI50
aI51
aa(lp937
I47
aI48
aI49
aI50
aI51
aI54
aI55
aa(lp938
I32
aI1
aI62
aI31
aa(lp939
I3
aI1
aI19
aI15
aa(lp940
I3
aI13
aI15
aa(lp941
I1
aI84
aI5
aI62
aa(lp942
I65
aI72
aI73
aI74
aI75
aI76
aI77
aa(lp943
I59
aI67
aI51
aI46
aI47
aa(lp944
I1
aI27
aI35
aa(lp945
I18
aI3
aI38
aa(lp946
I9
aI1
aa(lp947
I1
aI3
aI7
aI8
aI11
aI13
aa(lp948
I67
aI59
aI84
aa(lp949
I41
aI3
aI62
aI1
aa(lp950
I64
aI67
aI75
aI62
aI63
aa(lp951
I1
aI79
aI44
aI60
aI47
aa(lp952
I48
aI1
aI67
aI61
aa(lp953
I32
aI1
aI31
aa(lp954
I65
aI18
aI84
aI85
aa(lp955
I17
aI84
aI65
aI62
aI87
aa(lp956
I49
aI72
aI44
aI78
aI79
aI80
aI81
aI51
aI47
aa(lp957
I1
aI67
aI9
aI62
aI73
aa(lp958
I3
aI1
aI19
aa(lp959
I1
aI67
aI59
aI82
aI62
aa(lp960
I8
aI1
aI4
aa(lp961
I1
aI67
aI47
aI51
aI28
aI62
aa(lp962
I59
aI51
aI44
aI79
aa(lp963
I81
aI44
aI70
aa(lp964
I1
aI70
aI47
aa(lp965
I1
aI58
aI59
aa(lp966
I27
aI33
aI31
aI1
aI7
aa(lp967
I67
aI50
aI51
aI47
aa(lp968
I1
aI34
aI67
aI62
aa(lp969
I32
aI1
aI67
aI47
aI86
aI88
aI62
aa(lp970
I81
aI70
aI89
aa(lp971
I17
aI47
aI44
aI73
aa(lp972
I32
aI1
aI44
aI47
aI86
aI28
aI62
aa(lp973
I84
aI1
aI2
aI3
aI4
aa(lp974
I58
aI44
aa(lp975
I72
aI16
aI18
aI84
aI17
aa(lp976
I65
aI18
aI84
aa(lp977
I16
aI1
aI15
aI28
aI31
aa(lp978
I3
aI10
aI11
aa(lp979
I64
aI18
aI62
aa(lp980
I1
aI3
aI4
aI6
aI8
aI10
aI22
aa(lp981
I51
aI61
aa(lp982
I44
aI78
aI79
aa(lp983
I51
aI82
aI67
aI78
aI62
aa(lp984
I50
aI67
aI47
aa(lp985
I8
aI1
aI10
aI3
aI4
aa(lp986
I16
aI1
aI2
aI31
aI15
aa(lp987
I64
aI1
aI67
aI8
aI77
aI78
aI49
aI51
aI61
aI62
aa(lp988
I72
aI65
aI75
aI62
aa(lp989
I72
aI73
aI74
aI44
aI76
aI84
aI86
aI62
aa(lp990
I32
aI1
aI19
aI31
aa(lp991
I8
aI1
aI4
aI6
aa(lp992
I1
aI44
aI46
aI38
aI47
aa(lp993
I67
aI49
aI50
aI51
aI61
aa(lp994
I8
aI3
aI7
aa(lp995
I1
aI51
aI22
aI6
aI77
aa(lp996
I8
aI1
aI32
aI31
aa(lp997
I1
aI43
aI44
aa(lp998
I67
aI52
aI62
aI15
aa(lp999
I1
aI44
aI61
aI49
aa(lp1000
I64
aI1
aI67
aI15
aI49
aI58
aI28
aa(lp1001
I1
aI27
aI28
aI44
aa(lp1002
I32
aI1
aI67
aI44
aI77
aI46
aa(lp1003
I1
aI67
aI44
aI65
aI47
aa(lp1004
I9
aI18
aI44
aa(lp1005
I48
aI67
aI61
aa(lp1006
I1
aI18
aI19
aa(lp1007
I67
aI46
aI47
aI50
aI51
aI53
aI57
aa(lp1008
I72
aI1
aI84
aI73
aI63
aa(lp1009
I49
aI19
aI84
aI85
aI63
aa(lp1010
I67
aI44
aI62
aI46
aI47
aa(lp1011
I3
aI1
aI19
aI57
aa(lp1012
I18
aI27
aI60
aI31
aa(lp1013
I1
aI3
aI38
aI8
aI10
aI16
aa(lp1014
I72
aI18
aI86
aI63
aa(lp1015
I1
aI2
aI44
aI54
aa(lp1016
I1
aI81
aI44
aI49
aI51
aI61
aI62
aa(lp1017
I51
aI59
aI52
aI53
aI54
aa(lp1018
I8
aI1
aI3
aI21
aa(lp1019
I65
aI84
aI85
aI62
aa(lp1020
I17
aI3
aI44
aI62
aI73
aa(lp1021
I1
aI77
aI23
aa(lp1022
I9
aI28
aI1
aa(lp1023
I1
aI58
aI67
aI44
aa(lp1024
I1
aI4
aI31
aa(lp1025
I64
aI44
aI86
aa(lp1026
I1
aI27
aI35
aa(lp1027
I50
aI67
aI61
aa(lp1028
I88
aI65
aI1
aa(lp1029
I40
aI1
aI39
aa(lp1030
I1
aI15
aI44
aI31
aa(lp1031
I1
aI90
aI44
aa(lp1032
I50
aI51
aI76
aI47
aa(lp1033
I1
aI18
aI63
aa(lp1034
I1
aI44
aI47
aI48
aI49
aI59
aa(lp1035
I72
aI1
aI39
aa(lp1036
I67
aI75
aI47
aI84
aI62
aI63
aa(lp1037
I67
aI47
aI50
aI51
aI57
aI62
aa(lp1038
I1
aI75
aI62
aI63
aa(lp1039
I27
aI1
aI67
aI75
aa(lp1040
I1
aI33
aI31
aa(lp1041
I56
aI57
aI51
aI54
aa(lp1042
I49
aI57
aI47
aa(lp1043
I1
aI67
aI44
aI46
aI47
aI59
aI62
aa(lp1044
I1
aI73
aI77
aI47
aI84
aI62
aa(lp1045
I64
aI1
aI75
aI44
aI47
aI63
aa(lp1046
I1
aI75
aI82
aI84
aI88
aI63
aa(lp1047
I64
aI65
aI73
aI74
aI84
aI62
aa(lp1048
I59
aI67
aI3
aI46
aI1
aa(lp1049
I51
aI52
aI53
aI55
aa(lp1050
I1
aI31
aI81
aI63
aa(lp1051
I1
aI2
aI44
aI15
aI88
aI27
aa(lp1052
I65
aI73
aI1
aa(lp1053
I16
aI1
aI3
aI24
aa(lp1054
I1
aI18
aI34
aa(lp1055
I40
aI1
aI62
aI39
aa(lp1056
I32
aI1
aI6
aa(lp1057
I48
aI53
aI61
aa(lp1058
I52
aI53
aI55
aa(lp1059
I65
aI18
aI51
aI84
aI47
aa(lp1060
I32
aI1
aI22
aa(lp1061
I31
aI1
aI27
aI41
aI15
aa(lp1062
I1
aI4
aI62
aa(lp1063
I1
aI2
aI6
aa(lp1064
I1
aI72
aI75
aI44
aI84
aI62
aa(lp1065
I40
aI1
aI39
aa(lp1066
I16
aI1
aI28
aI77
aI15
aa(lp1067
I1
aI35
aa(lp1068
I64
aI1
aI2
aI67
aI10
aI3
aI62
aa(lp1069
I32
aI1
aI28
aa(lp1070
I1
aI72
aI75
aI44
aI47
aI82
aI84
aI62
aI63
aa(lp1071
I1
aI44
aI22
aa(lp1072
I72
aI74
aI76
aI77
aa(lp1073
I1
aI67
aI47
aI60
aI63
aa(lp1074
I48
aI49
aI59
aI47
aa(lp1075
I27
aI1
aI35
aa(lp1076
I67
aI44
aI47
aI48
aI51
aI54
aa(lp1077
I67
aI37
aI49
aI44
aI78
aI47
aI81
aI82
aI51
aI84
aI87
aI62
aa(lp1078
I1
aI67
aI77
aI47
aI48
aI51
aI55
aI62
aa(lp1079
I1
aI2
aI3
aI4
aI8
aI10
aI27
aa(lp1080
I8
aI1
aI3
aI64
aa(lp1081
I1
aI75
aI67
aI63
aa(lp1082
I72
aI74
aI75
aI76
aI77
aa(lp1083
I1
aI3
aI85
aI31
aa(lp1084
I72
aI73
aI74
aI76
aI17
aa(lp1085
I37
aI73
aI74
aI44
aI87
aI62
aa(lp1086
I8
aI1
aI2
aI27
aI31
aa(lp1087
I1
aI90
aI77
aa(lp1088
I67
aI51
aI53
aa(lp1089
I1
aI82
aI44
aa(lp1090
I1
aI67
aI51
aI84
aI87
aI62
aa(lp1091
I49
aI67
aI62
aI54
aI47
aa(lp1092
I72
aI1
aI44
aI86
aI46
aa(lp1093
I1
aI18
aI34
aI62
aa(lp1094
I64
aI67
aI44
aI78
aI47
aI81
aI50
aI51
aI52
aI85
aI86
aI79
aI62
aI53
aa(lp1095
I73
aI44
aI78
aI47
aI76
aI81
aI46
aa(lp1096
I73
aI84
aI85
aI62
aI63
aa(lp1097
I40
aI1
aI62
aI39
aa(lp1098
I64
aI44
aI86
aa(lp1099
I8
aI1
aI41
aa(lp1100
I88
aI65
aI76
aI73
aI1
aa(lp1101
I56
aI51
aI67
aa(lp1102
I51
aI61
aI79
aa(lp1103
I64
aI3
aI44
aI86
aI62
aI63
aa(lp1104
I1
aI67
aI72
aI31
aI47
aI59
aI62
aI63
aa(lp1105
I16
aI9
aI1
aa(lp1106
I88
aI1
aI67
aI62
aI15
aa(lp1107
I40
aI1
aI39
aa(lp1108
I1
aI75
aI84
aa(lp1109
I1
aI43
aI37
aI31
aa(lp1110
I44
aI78
aI47
aI81
aI82
aI90
aI79
aI31
aa(lp1111
I64
aI1
aI3
aI11
aI13
aI31
aa(lp1112
I67
aI46
aI47
aI48
aI49
aI59
aa(lp1113
I67
aI50
aI51
aI46
aa(lp1114
I1
aI18
aI34
aa(lp1115
I1
aI52
aI53
aa(lp1116
I1
aI18
aI15
aI7
aa(lp1117
I8
aI5
aa(lp1118
I1
aI27
aI77
aI35
aa(lp1119
I1
aI72
aI74
aI76
aI77
aI47
aI84
aI31
aa(lp1120
I65
aI44
aI81
aa(lp1121
I48
aI67
aI47
aa(lp1122
I48
aI1
aI59
aI49
aa(lp1123
I64
aI79
aI44
aI62
aI47
aa(lp1124
I50
aI67
aI47
aa(lp1125
I65
aI1
aI33
aa(lp1126
I1
aI67
aI50
aI46
aI48
aI49
aI18
aI84
aI59
aI31
aI62
aI63
aa(lp1127
I1
aI42
aI38
aa(lp1128
I1
aI85
aI22
aI31
aa(lp1129
I1
aI67
aI28
aI14
aa(lp1130
I1
aI2
aI21
aa(lp1131
I1
aI67
aI62
aI7
aa(lp1132
I1
aI75
aI84
aI62
aa(lp1133
I1
aI27
aI35
aa(lp1134
I1
aI6
aI47
aa(lp1135
I1
aI18
aI20
aa(lp1136
I67
aI72
aI44
aI16
aI62
aI63
aa(lp1137
I72
aI74
aI76
aa(lp1138
I1
aI67
aI44
aI46
aI59
aI31
aa(lp1139
I17
aI1
aa(lp1140
I1
aI35
aI36
aa(lp1141
I1
aI44
aI46
aI47
aI48
aI49
aI50
aI51
aI85
aI63
aa(lp1142
I64
aI67
aI44
aI82
aI53
aI86
aI62
aa(lp1143
I1
aI75
aI46
aI63
aa(lp1144
I73
aI75
aI62
aI63
aa(lp1145
I73
aI74
aI62
aa(lp1146
I8
aI3
aI7
aa(lp1147
I1
aI31
aI15
aa(lp1148
I1
aI44
aI47
aI81
aI50
aI51
aI87
aa(lp1149
I81
aI90
aI51
aI44
aa(lp1150
I72
aI17
aa(lp1151
I64
aI1
aI72
aI73
aI74
aI76
aI47
aI50
aa(lp1152
I1
aI51
aI57
aa(lp1153
I64
aI67
aI44
aI47
aI82
aI54
aI62
aa(lp1154
I1
aI2
aI7
aa(lp1155
I1
aI3
aI4
aI8
aI15
aI67
aa(lp1156
I6
aa(lp1157
I51
aI18
aI11
aa(lp1158
I1
aI74
aI75
aI84
aa(lp1159
I3
aI6
aa(lp1160
I1
aI67
aI46
aI47
aI51
aI54
aa(lp1161
I67
aI44
aI47
aI48
aI50
aI51
aI57
aa(lp1162
I1
aI2
aI67
aI86
aa(lp1163
I24
aI25
aa(lp1164
I67
aI75
aI76
aI47
aI49
aI84
aI57
aa(lp1165
I72
aI84
aI86
aI62
aI63
aa(lp1166
I64
aI1
aI3
aI8
aI44
aI47
aI48
aI49
aI67
aI59
aa(lp1167
I8
aI1
aI3
aI4
aI41
aa(lp1168
I67
aI46
aI54
aI47
aa(lp1169
I81
aI82
aI31
aI78
aI79
aa(lp1170
I40
aI1
aI3
aI8
aI39
aa(lp1171
I1
aI72
aI75
aI77
aI84
aI63
aa(lp1172
I1
aI75
aI63
aa(lp1173
I56
aI67
aI51
aa(lp1174
I17
aI70
aI81
aa(lp1175
I1
aI27
aI61
aI49
aa(lp1176
I16
aI25
aa(lp1177
I56
aI51
aI58
aI67
aa(lp1178
I1
aI38
aa(lp1179
I1
aI77
aa(lp1180
I1
aI67
aI47
aI50
aI51
aI62
aa(lp1181
I8
aI3
aa(lp1182
I1
aI67
aI47
aI48
aI49
aI86
aI88
aI62
aa(lp1183
I1
aI27
aI36
aI35
aa(lp1184
I44
aI47
aI50
aI51
aI85
aI56
aI79
aa(lp1185
I1
aI19
aa(lp1186
I1
aI3
aI5
aa(lp1187
I50
aI67
aI54
aI62
aI47
aa(lp1188
I1
aI52
aI62
aa(lp1189
I1
aI35
aa(lp1190
I1
aI72
aI47
aI81
aI82
aI51
aI63
aa(lp1191
I67
aI1
aI50
aI51
aI55
aa(lp1192
I1
aI58
aI54
aa(lp1193
I44
aI47
aI80
aI81
aI82
aI51
aI85
aa(lp1194
I1
aI3
aI38
aa(lp1195
I67
aI47
aI48
aI49
aI51
aI57
aa(lp1196
I1
aI10
aI3
aI4
aI31
aa(lp1197
I18
aI44
aI77
aa(lp1198
I72
aI88
aI74
aI76
aa(lp1199
I88
aI1
aI64
aI33
aa(lp1200
I73
aI74
aI84
aa(lp1201
I16
aI62
aa(lp1202
I67
aI59
aI62
aa(lp1203
I18
aI44
aI70
aa(lp1204
I1
aI67
aI60
aa(lp1205
I44
aI78
aI47
aI81
aI82
aI62
aa(lp1206
I16
aI84
aI28
aa(lp1207
I1
aI38
aI9
aa(lp1208
I27
aI1
aI43
aI15
aa(lp1209
I72
aI17
aI1
aI77
aI73
aa(lp1210
I67
aI44
aI50
aI46
aI79
aI81
aI82
aI51
aI85
aI62
aa(lp1211
I72
aI64
aI18
aI86
aa(lp1212
I8
aI1
aI41
aa(lp1213
I1
aI18
aI38
aa(lp1214
I1
aI2
aI27
aI6
aI31
aa(lp1215
I17
aI67
aI62
aa(lp1216
I40
aI1
aI62
aa(lp1217
I56
aI51
aI54
aa(lp1218
I67
aI86
aI47
aI84
aI54
aI55
aI62
aa(lp1219
I1
aI6
aI31
aa(lp1220
I1
aI10
aI3
aI2
aI31
aa(lp1221
I64
aI1
aI72
aI73
aI74
aI76
aI63
aa(lp1222
I24
aI25
aI1
aa(lp1223
I27
aI1
aI35
aI31
aa(lp1224
I49
aI58
aI54
aa(lp1225
I1
aI11
aI46
aI39
aa(lp1226
I1
aI67
aI44
aI47
aI50
aI51
aI62
aa(lp1227
I1
aI20
aI77
aa(lp1228
I17
aI82
aI51
aI78
aI87
aa(lp1229
I8
aI3
aI7
aa(lp1230
I1
aI82
aI60
aa(lp1231
I1
aI18
aI34
aa(lp1232
I2
aI4
aI14
aa(lp1233
I59
aI51
aI79
aa(lp1234
I72
aI73
aI75
aI76
aI78
aa(lp1235
I8
aI1
aI18
aa(lp1236
I73
aI75
aI76
aI77
aa(lp1237
I1
aI2
aI65
aI44
aI46
aI84
aI63
aa(lp1238
I1
aI28
aI62
aa(lp1239
I16
aI10
aI3
aI6
aa(lp1240
I64
aI1
aI3
aI50
aI51
aI54
aI31
aa(lp1241
I48
aI49
aI50
aI47
aa(lp1242
I27
aI1
aI35
aa(lp1243
I1
aI67
aI44
aI47
aI48
aI49
aI50
aI51
aI61
aa(lp1244
I56
aI50
aI51
aa(lp1245
I1
aI42
aI27
aI15
aa(lp1246
I1
aI59
aI44
aI51
aa(lp1247
I72
aI73
aI74
aI43
aI76
aI47
aI44
aI62
aa(lp1248
I48
aI49
aI50
aI51
aI53
aa(lp1249
I1
aI44
aI81
aI79
aa(lp1250
I64
aI51
aI84
aI86
aI62
aI63
aa(lp1251
I40
aI1
aI15
aI62
aI39
aa(lp1252
I8
aI1
aI2
aI4
aI31
aa(lp1253
I17
aI47
aI44
aI70
aI81
aa(lp1254
I8
aI1
aI3
aI6
aa(lp1255
I40
aI1
aI39
aa(lp1256
I1
aI2
aI3
aI4
aI8
aI21
aa(lp1257
I40
aI1
aI37
aI39
aa(lp1258
I67
aI28
aI62
aa(lp1259
I49
aI67
aI1
aI54
aI47
aa(lp1260
I72
aI17
aI76
aa(lp1261
I8
aI3
aI5
aa(lp1262
I27
aI1
aI35
aa(lp1263
I1
aI42
aI3
aa(lp1264
I48
aI49
aI67
aI47
aa(lp1265
I64
aI67
aI86
aI62
aa(lp1266
I56
aI67
aI51
aa(lp1267
I1
aI6
aa(lp1268
I1
aI75
aI84
aI63
aa(lp1269
I1
aI67
aI60
aI62
aa(lp1270
I1
aI27
aI33
aI31
aa(lp1271
I1
aI67
aI3
aI44
aI59
aa(lp1272
I40
aI1
aI39
aa(lp1273
I8
aI10
aI3
aa(lp1274
I1
aI58
aI85
aa(lp1275
I65
aI27
aI62
aa(lp1276
I1
aI42
aI15
aa(lp1277
I8
aI1
aI3
aa(lp1278
I40
aI1
aI37
aI62
aa(lp1279
I1
aI74
aI76
aa(lp1280
I27
aI41
aI3
aI1
aa(lp1281
I67
aI47
aI50
aI51
aI52
aI86
aI62
aa(lp1282
I64
aI17
aI51
aI84
aI86
aa(lp1283
I8
aI1
aI3
aI7
aa(lp1284
I1
aI44
aI46
aI47
aI55
aI31
aa(lp1285
I81
aI47
aI44
aI65
aI33
aa(lp1286
I1
aI27
aI35
aa(lp1287
I64
aI1
aI67
aI50
aI79
aI49
aI82
aI51
aI84
aI86
aI47
aI62
aa(lp1288
I1
aI3
aI15
aI47
aI59
aI31
aa(lp1289
I48
aI57
aI51
aa(lp1290
I1
aI67
aI44
aI51
aI59
aI62
aa(lp1291
I67
aI59
aI44
aI77
aI46
aa(lp1292
I72
aI51
aI19
aI63
aa(lp1293
I67
aI82
aI79
aI80
aI81
aI50
aI84
aI85
aI62
aa(lp1294
I1
aI31
aI84
aI15
aa(lp1295
I1
aI44
aI75
aI76
aI47
aI84
aI73
aI62
aa(lp1296
I67
aI44
aI46
aI47
aI81
aI82
aI84
aI54
aI62
aa(lp1297
I57
aI52
aI53
aI55
aa(lp1298
I9
aI2
aI3
aI15
aa(lp1299
I48
aI49
aI54
aI55
aa(lp1300
I1
aI3
aI52
aI4
aI31
aa(lp1301
I1
aI37
aI38
aa(lp1302
I67
aI73
aI44
aI48
aI49
aI56
aa(lp1303
I1
aI77
aI18
aI51
aI84
aI62
aa(lp1304
I8
aI1
aI90
aI3
aa(lp1305
I27
aI1
aI11
aa(lp1306
I48
aI49
aI67
aI59
aI47
aa(lp1307
I32
aI1
aI44
aI52
aI55
aI27
aa(lp1308
I74
aI67
aI76
aa(lp1309
I8
aI1
aa(lp1310
I1
aI48
aI49
aI50
aI51
aI54
aa(lp1311
I56
aI49
aI61
aa(lp1312
I1
aI67
aI77
aI62
aI47
aa(lp1313
I1
aI67
aI44
aI55
aI59
aI62
aa(lp1314
I48
aI1
aI67
aI73
aI47
aa(lp1315
I17
aI31
aI62
aI1
aa(lp1316
I72
aI74
aI76
aa(lp1317
I88
aI1
aI64
aI63
aa(lp1318
I1
aI67
aI47
aI82
aI51
aI61
aI62
aa(lp1319
I1
aI15
aI73
aa(lp1320
I1
aI3
aI13
aI77
aa(lp1321
I32
aI1
aI6
aa(lp1322
I58
aI67
aI47
aa(lp1323
I72
aI1
aI44
aI87
aa(lp1324
I1
aI34
aI3
aa(lp1325
I1
aI3
aI38
aI31
aa(lp1326
I40
aI1
aI27
aa(lp1327
I1
aI67
aI79
aI48
aI49
aI47
aI62
aa(lp1328
I32
aI1
aI62
aa(lp1329
I1
aI44
aI15
aI18
aI84
aI27
aa(lp1330
I65
aI18
aI75
aa(lp1331
I72
aI33
aI27
aI31
aI1
aa(lp1332
I1
aI67
aI47
aI48
aI49
aI50
aI54
aI60
aa(lp1333
I64
aI1
aI67
aI42
aI28
aI62
aa(lp1334
I8
aI10
aI3
aa(lp1335
I1
aI54
aa(lp1336
I72
aI1
aI62
aI63
aa(lp1337
I87
aI84
aI47
aa(lp1338
I1
aI50
aI67
aI54
aI47
aa(lp1339
I32
aI1
aI43
aa(lp1340
I1
aI3
aI6
aI8
aI67
aI62
aI31
aa(lp1341
I72
aI84
aI63
aa(lp1342
I1
aI58
aI62
aI31
aa(lp1343
I72
aI44
aI47
aI51
aI86
aI63
aa(lp1344
I1
aI34
aI67
aa(lp1345
I48
aI49
aI67
aI51
aa(lp1346
I64
aI75
aI62
aI63
aa(lp1347
I1
aI34
aI44
aa(lp1348
I1
aI3
aI73
aI15
aI62
aI31
aa(lp1349
I9
aI27
aI21
aI1
aa(lp1350
I1
aI15
aI77
aI31
aa(lp1351
I48
aI49
aI67
aI54
aI51
aa(lp1352
I1
aI67
aI47
aI48
aI49
aI59
aI62
aa(lp1353
I65
aI73
aI74
aI77
aI84
aI27
aI28
aa(lp1354
I72
aI74
aI76
aa(lp1355
I27
aI1
aI2
aI3
aI10
aa(lp1356
I64
aI1
aI67
aI53
aI27
aI62
aI31
aa(lp1357
I1
aI67
aI47
aI48
aI49
aI51
aI62
aa(lp1358
I8
aI1
aI3
aI37
aa(lp1359
I32
aI1
aI43
aI37
aI15
aa(lp1360
I72
aI33
aI65
aa(lp1361
I8
aI1
aI3
aa(lp1362
I8
aI1
aI3
aI15
aa(lp1363
I1
aI18
aI27
aI2
aI14
aa(lp1364
I1
aI3
aI20
aa(lp1365
I59
aI67
aI47
aa(lp1366
I64
aI1
aI81
aI86
aI47
aa(lp1367
I40
aI1
aI47
aI39
aa(lp1368
I2
aI3
aI10
aa(lp1369
I1
aI67
aI72
aI73
aI77
aI84
aI62
aI63
aa(lp1370
I64
aI1
aI75
aI63
aa(lp1371
I72
aI74
aI76
aI77
aI84
aI62
aa(lp1372
I1
aI67
aI44
aI47
aI49
aI88
aI61
aI62
aa(lp1373
I56
aI1
aI59
aI31
aa(lp1374
I1
aI67
aI73
aI15
aI27
aI62
aa(lp1375
I1
aI9
aI28
aI77
aI15
aa(lp1376
I8
aI10
aI19
aa(lp1377
I16
aI25
aI64
aa(lp1378
I1
aI47
aI73
aa(lp1379
I58
aI67
aI47
aa(lp1380
I1
aI3
aI4
aI8
aI10
aI16
aI27
aa(lp1381
I3
aI1
aI19
aI8
aI31
aa(lp1382
I64
aI72
aI47
aI63
aa(lp1383
I56
aI57
aI67
aI51
aa(lp1384
I1
aI75
aI17
aI84
aI62
aI63
aa(lp1385
I1
aI67
aI77
aI62
aI47
aa(lp1386
I1
aI72
aI75
aI84
aI85
aI63
aa(lp1387
I81
aI82
aI79
aa(lp1388
I48
aI49
aI59
aa(lp1389
I78
aI47
aI81
aI82
aI51
aI79
aa(lp1390
I48
aI73
aI67
aI51
aI17
aa(lp1391
I27
aI1
aI3
aI35
aa(lp1392
I1
aI72
aI75
aI46
aI47
aI63
aa(lp1393
I1
aI67
aI44
aI49
aI50
aI85
aI31
aa(lp1394
I47
aI51
aI55
aa(lp1395
I81
aI44
aI70
aa(lp1396
I33
aI27
aI1
aI77
aI31
aa(lp1397
I8
aI1
aI38
aa(lp1398
I8
aI1
aI44
aa(lp1399
I72
aI80
aI84
aI62
aa(lp1400
I1
aI27
aI38
aa(lp1401
I65
aI18
aI62
aa(lp1402
I1
aI43
aI37
aa(lp1403
I1
aI3
aI6
aa(lp1404
I73
aI84
aI63
aa(lp1405
I48
aI1
aI67
aI54
aa(lp1406
I1
aI27
aI41
aI15
aa(lp1407
I73
aI75
aI1
aI77
aI47
aa(lp1408
I1
aI35
aI15
aa(lp1409
I72
aI1
aI75
aI84
aI63
aa(lp1410
I73
aI74
aI62
aa(lp1411
I1
aI50
aI59
aI44
aa(lp1412
I49
aI51
aI61
aI47
aa(lp1413
I3
aI1
aI10
aI11
aI8
aa(lp1414
I67
aI44
aI78
aI79
aI81
aI47
aI62
aa(lp1415
I1
aI31
aI33
aI7
aa(lp1416
I1
aI18
aI27
aI31
aa(lp1417
I81
aI44
aI70
aa(lp1418
I67
aI59
aI53
aa(lp1419
I48
aI56
aI51
aI84
aI62
aa(lp1420
I65
aI84
aI1
aa(lp1421
I81
aI44
aI70
aI47
aa(lp1422
I1
aI51
aI81
aI55
aa(lp1423
I1
aI10
aI7
aa(lp1424
I1
aI2
aI19
aa(lp1425
I1
aI44
aI77
aI63
aa(lp1426
I8
aI1
aI3
aI5
aI6
aa(lp1427
I1
aI3
aI38
aa(lp1428
I1
aI3
aI33
aI15
aa(lp1429
I1
aI67
aI51
aI62
aI79
aa(lp1430
I67
aI54
aI46
aa(lp1431
I48
aI49
aI67
aI59
aI47
aa(lp1432
I1
aI67
aI46
aI47
aI48
aI50
aI51
aI27
aI61
aa(lp1433
I17
aI31
aI84
aI77
aI65
aa(lp1434
I65
aI76
aI62
aI73
aI1
aa(lp1435
I16
aI24
aa(lp1436
I50
aI78
aI79
aI81
aI82
aI51
aI52
aI53
aI86
aI55
aa(lp1437
I1
aI67
aI47
aI48
aI51
aI59
aa(lp1438
I84
aI1
aI44
aa(lp1439
I1
aI38
aI9
aa(lp1440
I1
aI90
aI81
aa(lp1441
I1
aI59
aI87
aa(lp1442
I1
aI58
aI27
aI54
aa(lp1443
I49
aI67
aI59
aI44
aI47
aa(lp1444
I1
aI25
aa(lp1445
I11
aI3
aI13
aa(lp1446
I1
aI42
aa(lp1447
I81
aI44
aI47
aa(lp1448
I1
aI19
aa(lp1449
I3
aI67
aI47
aI48
aI49
aI50
aI51
aI56
aI61
aa(lp1450
I56
aI51
aI67
aI44
aI57
aa(lp1451
I67
aI84
aI62
aI86
aa(lp1452
I25
aI31
aI1
aI57
aa(lp1453
I72
aI73
aI74
aI44
aI47
aI76
aI84
aa(lp1454
I16
aI21
aa(lp1455
I53
aI55
aa(lp1456
I1
aI35
aa(lp1457
I72
aI73
aI74
aI75
aI76
aI87
aI62
aa(lp1458
I1
aI2
aI75
aI77
aI63
aa(lp1459
I1
aI3
aI17
aa(lp1460
I1
aI38
aI31
aa(lp1461
I81
aI51
aI44
aa(lp1462
I81
aI44
aI70
aa(lp1463
I72
aI1
aI2
aa(lp1464
I24
aI3
aa(lp1465
I1
aI50
aI44
aa(lp1466
I9
aI28
aI1
aa(lp1467
I81
aI44
aI70
aa(lp1468
I88
aI28
aa(lp1469
I1
aI67
aI47
aI48
aI49
aI50
aI51
aI57
aI15
aI62
aa(lp1470
I17
aI82
aI62
aI79
aa(lp1471
I27
aI1
aI11
aI33
aa(lp1472
I1
aI27
aI33
aa(lp1473
I16
aI1
aI3
aa(lp1474
I56
aI53
aI55
aa(lp1475
I32
aI1
aI67
aI62
aa(lp1476
I8
aI1
aI19
aa(lp1477
I1
aI3
aI4
aI77
aa(lp1478
I64
aI1
aI67
aI44
aI46
aI47
aI48
aI49
aI50
aI51
aI52
aI53
aI55
aI62
aI63
aa(lp1479
I48
aI49
aI67
aI51
aI87
aa(lp1480
I64
aI1
aI8
aI51
aI53
aI55
aa(lp1481
I64
aI1
aI10
aI3
aa(lp1482
I72
aI62
aI63
aa(lp1483
I27
aI1
aI3
aI14
aI31
aa(lp1484
I72
aI1
aI75
aI62
aa(lp1485
I4
aI72
aI74
aI76
aI49
aI62
aI63
aa(lp1486
I8
aI1
aI2
aI3
aI10
aa(lp1487
I1
aI81
aI44
aI79
aI49
aI51
aI47
aa(lp1488
I1
aI42
aI38
aa(lp1489
I1
aI3
aI14
aa(lp1490
I56
aI1
aI48
aI57
aa(lp1491
I1
aI27
aI77
aI62
aI73
aa(lp1492
I65
aI33
aI75
aI77
aI27
aI62
aa(lp1493
I1
aI67
aI65
aI44
aI77
aI18
aI84
aa(lp1494
I64
aI1
aI67
aI44
aI15
aI3
aI28
aI62
aa(lp1495
I1
aI6
aI77
aI15
aI62
aI31
aa(lp1496
I27
aI1
aI75
aI31
aa(lp1497
I1
aI67
aI44
aI46
aI47
aI49
aI62
aa(lp1498
I1
aI67
aI44
aI46
aa(lp1499
I32
aI1
aI44
aI61
aI49
aa(lp1500
I40
aI1
aI39
aa(lp1501
I1
aI19
aI62
aa(lp1502
I64
aI86
aI62
aa(lp1503
I64
aI1
aI67
aI4
aI62
aa(lp1504
I8
aI1
aI3
aI6
aa(lp1505
I1
aI3
aI4
aI8
aI10
aI27
aa(lp1506
I8
aI3
aI13
aa(lp1507
I47
aI85
aI63
aa(lp1508
I17
aI2
aI15
aa(lp1509
I1
aI75
aI65
aI62
aI63
aa(lp1510
I17
aI2
aI15
aa(lp1511
I1
aI2
aI3
aI6
aa(lp1512
I1
aI33
aI7
aa(lp1513
I64
aI1
aI67
aI28
aI62
aI31
aa(lp1514
I8
aI1
aI42
aa(lp1515
I8
aI1
aI3
aI5
aa(lp1516
I8
aI1
aI3
aa(lp1517
I1
aI67
aI51
aI55
aa(lp1518
I32
aI1
aI44
aI85
aI63
aa(lp1519
I1
aI58
aI9
aa(lp1520
I67
aI44
aI47
aI48
aI49
aI59
aI62
aa(lp1521
I1
aI87
aI78
aI79
aI80
aI52
aI55
aI47
aI61
aa(lp1522
I10
aI3
aI4
aa(lp1523
I1
aI36
aa(lp1524
I40
aI1
aI37
aI62
aI39
aa(lp1525
I1
aI19
aI31
aa(lp1526
I72
aI17
aI18
aI84
aI86
aI63
aI31
aa(lp1527
I27
aI1
aI67
aI15
aa(lp1528
I88
aI64
aI77
aa(lp1529
I17
aI51
aI49
aI78
aI81
aa(lp1530
I50
aI67
aI54
aI47
aa(lp1531
I1
aI67
aI47
aI48
aI49
aI50
aI59
aa(lp1532
I72
aI74
aI75
aI76
aa(lp1533
I1
aI27
aI85
aI33
aa(lp1534
I8
aI10
aI3
aa(lp1535
I1
aI59
aI44
aI31
aa(lp1536
I1
aI67
aI47
aI58
aI62
aI31
aa(lp1537
I81
aI90
aI47
aa(lp1538
I1
aI67
aI60
aa(lp1539
I1
aI79
aI47
aa(lp1540
I1
aI35
aa(lp1541
I1
aI27
aI77
aa(lp1542
I1
aI35
aa(lp1543
I72
aI74
aI76
aI47
aI84
aI31
aa(lp1544
I1
aI67
aI51
aI77
aI48
aI50
aI3
aI31
aa(lp1545
I64
aI1
aI11
aI47
aa(lp1546
I81
aI90
aI44
aI70
aa(lp1547
I16
aI1
aI84
aa(lp1548
I24
aI25
aI22
aa(lp1549
I8
aI1
aI10
aI3
aa(lp1550
I1
aI75
aI84
aI62
aa(lp1551
I81
aI44
aI46
aI47
aI49
aI50
aI51
aI79
aa(lp1552
I1
aI3
aI20
aI77
aa(lp1553
I17
aI82
aI1
aI73
aI63
aa(lp1554
I8
aI1
aI3
aI4
aa(lp1555
I17
aI1
aI81
aI89
aa(lp1556
I17
aI52
aI65
aa(lp1557
I67
aI61
aI62
aa(lp1558
I1
aI82
aI84
aI90
aI62
aI31
aa(lp1559
I16
aI62
aI15
aa(lp1560
I33
aI72
aI75
aI51
aI84
aI53
aI62
aI63
aa(lp1561
I8
aI4
aI3
aI44
aI1
aa(lp1562
I8
aI1
aI3
aI85
aa(lp1563
I1
aI35
aI36
aa(lp1564
I1
aI67
aI44
aI47
aI54
aI62
aa(lp1565
I1
aI31
aI7
aa(lp1566
I1
aI27
aI38
aI31
aa(lp1567
I72
aI76
aI84
aI85
aI27
aI62
aI63
aa(lp1568
I1
aI58
aI54
aa(lp1569
I56
aI57
aI50
aa(lp1570
I67
aI47
aI48
aI49
aI50
aI51
aa(lp1571
I17
aI74
aI51
aI62
aI73
aa(lp1572
I73
aI74
aI47
aa(lp1573
I1
aI67
aI59
aI47
aa(lp1574
I1
aI51
aI78
aI47
aa(lp1575
I1
aI3
aI5
aI8
aI73
aI77
aI62
aa(lp1576
I72
aI1
aI18
aI62
aa(lp1577
I1
aI67
aI44
aI46
aI50
aI51
aI61
aI62
aa(lp1578
I32
aI1
aI43
aI85
aa(lp1579
I1
aI67
aI84
aI58
aI27
aI62
aa(lp1580
I1
aI10
aI28
aI31
aa(lp1581
I8
aI1
aI3
aI13
aI27
aa(lp1582
I32
aI1
aI62
aI46
aa(lp1583
I1
aI67
aI48
aI59
aI61
aI62
aa(lp1584
I1
aI3
aI21
aa(lp1585
I1
aI58
aI28
aa(lp1586
I72
aI1
aI85
aI21
aa(lp1587
I1
aI50
aI46
aa(lp1588
I1
aI73
aI74
aI77
aI47
aI63
aa(lp1589
I27
aI1
aI35
aa(lp1590
I1
aI67
aI51
aI84
aI60
aI61
aI62
aa(lp1591
I1
aI67
aI72
aI44
aI46
aI82
aI51
aa(lp1592
I1
aI44
aI78
aI60
aa(lp1593
I1
aI67
aI79
aI49
aI82
aI47
aa(lp1594
I48
aI58
aI50
aI47
aa(lp1595
I1
aI27
aI22
aa(lp1596
I1
aI28
aI62
aa(lp1597
I80
aI51
aI44
aI53
aa(lp1598
I81
aI82
aI51
aI44
aI1
aa(lp1599
I17
aI75
aI77
aa(lp1600
I67
aI77
aI47
aI48
aI49
aI59
aa(lp1601
I1
aI67
aI77
aI47
aI48
aI50
aI51
aI62
aI31
aa(lp1602
I64
aI1
aI3
aI15
aa(lp1603
I64
aI1
aI67
aI43
aa(lp1604
I8
aI1
aI3
aa(lp1605
I32
aI64
aI1
aI73
aI75
aI47
aI84
aI31
aa(lp1606
I1
aI67
aI73
aI74
aI44
aI49
aI51
aI54
aI62
aa(lp1607
I67
aI50
aI51
aI61
aI47
aa(lp1608
I27
aI1
aI35
aa(lp1609
I1
aI2
aI4
aI33
aI44
aI51
aI53
aI55
aI21
aa(lp1610
I67
aI47
aI51
aI85
aI62
aI63
aa(lp1611
I1
aI4
aI6
aI8
aI55
aI28
aa(lp1612
I33
aI77
aI47
aI48
aI84
aI87
aI27
aa(lp1613
I73
aI46
aI1
aa(lp1614
I73
aI60
aI47
aa(lp1615
I8
aI1
aI3
aI5
aI6
aa(lp1616
I1
aI31
aI7
aa(lp1617
I1
aI3
aI39
aI72
aI8
aI31
aa(lp1618
I1
aI52
aI62
aa(lp1619
I67
aI58
aI51
aI54
aI47
aa(lp1620
I1
aI34
aI28
aa(lp1621
I65
aI62
aI73
aa(lp1622
I1
aI3
aI8
aI10
aI11
aI19
aa(lp1623
I55
aI67
aI1
aI61
aI47
aa(lp1624
I32
aI1
aI19
aI84
aI88
aI90
aa(lp1625
I31
aI1
aI2
aI3
aI33
aa(lp1626
I1
aI22
aI15
aa(lp1627
I51
aI52
aI55
aa(lp1628
I64
aI67
aI72
aI51
aI84
aI62
aI63
aa(lp1629
I64
aI2
aI4
aa(lp1630
I67
aI49
aI78
aI47
aI80
aI81
aI82
aI84
aI86
aI79
aI62
aI63
aa(lp1631
I81
aI51
aI70
aa(lp1632
I8
aI10
aI3
aI4
aI14
aa(lp1633
I1
aI41
aa(lp1634
I11
aI8
aI10
aI3
aa(lp1635
I1
aI2
aI27
aI7
aa(lp1636
I67
aI44
aI46
aI16
aI50
aI51
aI84
aI58
aI62
aI63
aa(lp1637
I73
aI44
aI77
aI1
aa(lp1638
I1
aI67
aI72
aI50
aI51
aI62
aI63
aa(lp1639
I81
aI44
aI70
aI47
aa(lp1640
I64
aI1
aI52
aa(lp1641
I1
aI42
aI38
aa(lp1642
I8
aI1
aI47
aI31
aa(lp1643
I1
aI19
aa(lp1644
I1
aI67
aI61
aI49
aa(lp1645
I67
aI44
aI79
aI81
aI82
aI51
aI85
aI62
aa(lp1646
I1
aI18
aI44
aI62
aI47
aa(lp1647
I25
aI31
aI1
aI57
aa(lp1648
I1
aI2
aI27
aa(lp1649
I72
aI65
aI44
aa(lp1650
I64
aI1
aI67
aI75
aI44
aI46
aI47
aI85
aI63
aa(lp1651
I1
aI75
aI51
aa(lp1652
I27
aI1
aI7
aI6
aI31
aa(lp1653
I1
aI18
aI51
aI90
aI70
aa(lp1654
I17
aI62
aI63
aa(lp1655
I8
aI1
aI6
aa(lp1656
I72
aI1
aI44
aa(lp1657
I1
aI3
aI8
aI11
aI13
aI18
aa(lp1658
I8
aI3
aI70
aa(lp1659
I1
aI3
aI14
aa(lp1660
I1
aI19
aI46
aa(lp1661
I1
aI43
aI37
aI62
aa(lp1662
I1
aI67
aI77
aI62
aI47
aa(lp1663
I57
aI51
aI81
aI55
aa(lp1664
I65
aI2
aI31
aa(lp1665
I73
aI74
aI84
aI62
aa(lp1666
I72
aI75
aI63
aa(lp1667
I1
aI75
aI76
aI73
aI63
aa(lp1668
I64
aI67
aI86
aa(lp1669
I31
aI1
aI27
aI6
aI33
aa(lp1670
I17
aI75
aI63
aa(lp1671
I1
aI67
aI43
aI62
aa(lp1672
I1
aI34
aI3
aa(lp1673
I1
aI36
aa(lp1674
I1
aI67
aI51
aI8
aI44
aI50
aI3
aI54
aI57
aa(lp1675
I72
aI1
aI75
aa(lp1676
I27
aI1
aI35
aa(lp1677
I32
aI1
aI67
aI73
aI74
aI76
aI47
aI51
aI84
aI44
aI62
aa(lp1678
I1
aI72
aI73
aI74
aI75
aI76
aI84
aI62
aa(lp1679
I81
aI44
aI78
aI1
aa(lp1680
I1
aI67
aI46
aI47
aI48
aI49
aI59
aI62
aa(lp1681
I1
aI43
aI62
aa(lp1682
I51
aI54
aa(lp1683
I1
aI67
aI22
aI62
aa(lp1684
I1
aI67
aI77
aI47
aI48
aI59
aa(lp1685
I8
aI1
aI41
aa(lp1686
I1
aI2
aI77
aI15
aI84
aI27
aa(lp1687
I1
aI67
aI44
aI47
aI51
aI55
aI79
aa(lp1688
I44
aI79
aI82
aI51
aI84
aI47
aa(lp1689
I1
aI54
aa(lp1690
I1
aI67
aI81
aI44
aI77
aI47
aI48
aI49
aI59
aa(lp1691
I1
aI77
aI62
aa(lp1692
I1
aI50
aI67
aI61
aI47
aa(lp1693
I1
aI33
aI72
aI76
aI27
aI31
aa(lp1694
I1
aI27
aI33
aa(lp1695
I1
aI90
aI44
aa(lp1696
I8
aI1
aI2
aI44
aa(lp1697
I1
aI72
aI75
aI44
aI47
aI82
aI85
aI63
aa(lp1698
I40
aI1
aI39
aa(lp1699
I1
aI43
aI62
aa(lp1700
I40
aI1
aI39
aa(lp1701
I1
aI2
aI3
aI6
aI27
aI31
aa(lp1702
I1
aI28
aI77
aa(lp1703
I65
aI33
aI73
aI74
aI76
aI84
aI62
aa(lp1704
I1
aI67
aI44
aI77
aI47
aI28
aI62
aa(lp1705
I81
aI44
aI70
aI1
aa(lp1706
I1
aI82
aI55
aa(lp1707
I1
aI10
aI3
aa(lp1708
I35
aI27
aI1
aa(lp1709
I1
aI28
aI31
aa(lp1710
I73
aI75
aI84
aI77
aI65
aa(lp1711
I1
aI2
aI67
aI9
aI27
aI28
aI62
aa(lp1712
I77
aI49
aI85
aI27
aI28
aI31
aa(lp1713
I44
aI67
aI52
aa(lp1714
I1
aI18
aI42
aa(lp1715
I8
aI1
aI3
aa(lp1716
I18
aI31
aI62
aI63
aa(lp1717
I2
aI74
aI75
aI44
aI79
aI82
aI84
aI27
aI62
aI63
aa(lp1718
I8
aI1
aI3
aa(lp1719
I1
aI37
aI43
aI27
aI62
aI31
aa(lp1720
I65
aI33
aI1
aa(lp1721
I67
aI44
aI77
aI47
aI48
aI82
aI84
aI59
aI62
aa(lp1722
I1
aI3
aI9
aI15
aI27
aI62
aI31
aa(lp1723
I1
aI82
aI59
aI62
aa(lp1724
I64
aI67
aI72
aI75
aI16
aI84
aI62
aI63
aa(lp1725
I72
aI73
aI74
aI75
aI76
aI77
aI47
aa(lp1726
I1
aI3
aI28
aI6
aa(lp1727
I1
aI4
aI21
aa(lp1728
I18
aI51
aI62
aa(lp1729
I1
aI18
aI34
aI37
aa(lp1730
I1
aI72
aI75
aI51
aI85
aI62
aI63
aa(lp1731
I1
aI72
aI76
aI77
aI49
aI51
aI84
aI61
aa(lp1732
I56
aI75
aI51
aa(lp1733
I1
aI37
aI39
aa(lp1734
I48
aI51
aI47
aa(lp1735
I32
aI17
aa(lp1736
I8
aI1
aI42
aI3
aa(lp1737
I8
aI3
aa(lp1738
I1
aI82
aI78
aI81
aI79
aa(lp1739
I1
aI75
aI62
aa(lp1740
I2
aI6
aa(lp1741
I40
aI1
aI39
aa(lp1742
I72
aI46
aI47
aI51
aI85
aI62
aI63
aa(lp1743
I73
aI75
aI18
aI84
aI86
aI62
aI63
aa(lp1744
I1
aI6
aa(lp1745
I67
aI55
aa(lp1746
I58
aI67
aI44
aa(lp1747
I8
aI1
aI42
aa(lp1748
I17
aI75
aI63
aI1
aa(lp1749
I64
aI75
aI86
aI62
aI63
aa(lp1750
I2
aI6
aa(lp1751
I64
aI1
aI10
aI3
aI31
aa(lp1752
I64
aI1
aI33
aI44
aI15
aI31
aa(lp1753
I1
aI42
aI37
aa(lp1754
I64
aI67
aI51
aI86
aI62
aI63
aa(lp1755
I1
aI27
aI35
aI7
aa(lp1756
I8
aI11
aI10
aI3
aa(lp1757
I8
aI1
aI3
aa(lp1758
I1
aI67
aI60
aI44
aI77
aI46
aI47
aI28
aI31
aa(lp1759
I27
aI1
aI35
aI36
aa(lp1760
I17
aI70
aa(lp1761
I16
aI8
aa(lp1762
I3
aI14
aa(lp1763
I3
aI1
aI10
aI27
aI41
aa(lp1764
I1
aI3
aI6
aa(lp1765
I2
aI70
aa(lp1766
I1
aI51
aI44
aI59
aI79
aa(lp1767
I17
aI75
aI62
aI63
aa(lp1768
I64
aI81
aI49
aI79
aI17
aI51
aI47
aa(lp1769
I88
aI78
aa(lp1770
I65
aI77
aI31
aa(lp1771
I32
aI1
aI6
aa(lp1772
I8
aI1
aI3
aI4
aa(lp1773
I1
aI52
aI53
aI62
aI55
aa(lp1774
I27
aI1
aI35
aa(lp1775
I8
aI1
aI3
aI31
aa(lp1776
I50
aI67
aI54
aa(lp1777
I3
aI58
aI67
aI2
aI47
aa(lp1778
I1
aI90
aa(lp1779
I1
aI43
aI65
aa(lp1780
I1
aI38
aa(lp1781
I1
aI20
aa(lp1782
I1
aI3
aI8
aI14
aI28
aI31
aa(lp1783
I56
aI84
aI47
aa(lp1784
I9
aI1
aa(lp1785
I1
aI84
aI6
aa(lp1786
I1
aI90
aI62
aI63
aa(lp1787
I64
aI67
aI72
aI75
aI80
aI82
aI84
aI62
aI63
aa(lp1788
I51
aI61
aI79
aa(lp1789
I51
aI52
aI53
aa(lp1790
I1
aI18
aI28
aI62
aa(lp1791
I1
aI43
aI37
aa(lp1792
I27
aI1
aI35
aI62
aa(lp1793
I67
aI74
aI76
aI47
aI50
aI51
aI54
aa(lp1794
I1
aI59
aI65
aa(lp1795
I56
aI57
aI53
aI79
aa(lp1796
I8
aI1
aI27
aI6
aI31
aa(lp1797
I1
aI27
aI4
aa(lp1798
I56
aI1
aI52
aI53
aa(lp1799
I67
aI81
aI44
aI78
aI47
aI49
aI51
aI84
aI62
aa(lp1800
I65
aI84
aI62
aa(lp1801
I1
aI3
aI6
aa(lp1802
I40
aI1
aI15
aI39
aa(lp1803
I8
aI1
aI6
aa(lp1804
I1
aI44
aI47
aI82
aI54
aI58
aI27
aa(lp1805
I1
aI3
aI37
aI15
aI27
aI62
aa(lp1806
I1
aI54
aI31
aa(lp1807
I81
aI44
aI78
aI47
aI80
aI49
aI50
aI86
aI87
aa(lp1808
I48
aI1
aI54
aI49
aa(lp1809
I27
aI1
aI67
aI28
aI62
aa(lp1810
I8
aI1
aI5
aa(lp1811
I1
aI2
aI3
aI6
aI10
aI11
aa(lp1812
I72
aI65
aI62
aI63
aa(lp1813
I64
aI1
aI67
aI44
aI47
aI48
aI49
aI50
aI57
aI62
aa(lp1814
I1
aI27
aI28
aI38
aI15
aa(lp1815
I1
aI42
aI28
aa(lp1816
I65
aI1
aI73
aI18
aI84
aI62
aI63
aa(lp1817
I56
aI51
aI54
aa(lp1818
I1
aI50
aI67
aI46
aI51
aa(lp1819
I1
aI18
aI4
aI10
aI33
aa(lp1820
I84
aI65
aI44
aI1
aa(lp1821
I27
aI1
aI35
aa(lp1822
I59
aI67
aI44
aa(lp1823
I48
aI1
aI51
aI61
aa(lp1824
I85
aI78
aI79
aa(lp1825
I1
aI18
aI34
aa(lp1826
I8
aI1
aI3
aI4
aI6
aa(lp1827
I1
aI67
aI47
aI84
aI61
aI62
aa(lp1828
I72
aI65
aI74
aI76
aa(lp1829
I1
aI67
aI47
aI48
aI49
aI50
aI51
aI54
aa(lp1830
I64
aI44
aI50
aI78
aI79
aI81
aI82
aI51
aI85
aa(lp1831
I64
aI1
aI67
aI47
aI85
aI86
aI62
aI63
aa(lp1832
I88
aI50
aI51
aI47
aa(lp1833
I67
aI59
aI44
aI47
aa(lp1834
I56
aI57
aI62
aa(lp1835
I32
aI1
aI3
aI33
aI10
aI28
aI31
aa(lp1836
I65
aI84
aI1
aa(lp1837
I84
aI1
aI28
aI62
aI47
aa(lp1838
I1
aI4
aI33
aa(lp1839
I24
aI1
aI3
aa(lp1840
I1
aI50
aI51
aI59
aI49
aa(lp1841
I48
aI49
aI67
aI55
aI47
aa(lp1842
I64
aI72
aI75
aI17
aI62
aI63
aa(lp1843
I1
aI28
aI31
aa(lp1844
I88
aI28
aa(lp1845
I73
aI76
aa(lp1846
I1
aI59
aI62
aa(lp1847
I1
aI3
aI38
aa(lp1848
I1
aI67
aI65
aI73
aI47
aI62
aI63
aa(lp1849
I67
aI44
aI47
aI48
aI49
aI50
aI51
aI54
aI61
aa(lp1850
I65
aI62
aa(lp1851
I62
aI1
aI3
aI77
aI54
aa(lp1852
I1
aI3
aI37
aI39
aI8
aI40
aa(lp1853
I82
aI3
aI4
aI62
aa(lp1854
I72
aI1
aI75
aI84
aa(lp1855
I73
aI84
aI63
aa(lp1856
I1
aI27
aI36
aa(lp1857
I1
aI81
aI73
aI82
aI79
aI49
aI18
aI51
aI47
aa(lp1858
I56
aI49
aI47
aa(lp1859
I57
aI50
aI67
aI61
aa(lp1860
I40
aI1
aI37
aa(lp1861
I41
aI31
aI1
aa(lp1862
I27
aI1
aI35
aI36
aa(lp1863
I1
aI44
aI77
aI62
aI47
aa(lp1864
I1
aI44
aI78
aI79
aI18
aI51
aI86
aI47
aa(lp1865
I1
aI10
aI3
aa(lp1866
I1
aI27
aI35
aa(lp1867
I1
aI67
aI44
aI47
aI48
aI49
aI50
aI51
aI59
aI61
aI62
aa(lp1868
I81
aI82
aI44
aa(lp1869
I1
aI2
aI4
aI6
aa(lp1870
I32
aI1
aI2
aI27
aI31
aa(lp1871
I1
aI72
aI73
aI74
aI75
aI76
aI84
aa(lp1872
I1
aI67
aI3
aI77
aI15
aa(lp1873
I1
aI84
aI73
aI63
aa(lp1874
I1
aI50
aI51
aI54
aa(lp1875
I1
aI43
aI37
aa(lp1876
I1
aI2
aI3
aI4
aI22
aa(lp1877
I1
aI2
aI4
aI31
aa(lp1878
I1
aI27
aI36
aI35
aa(lp1879
I67
aI47
aI50
aI51
aI55
aI56
aa(lp1880
I64
aI72
aI75
aI47
aI51
aI84
aI86
aI62
aI63
aa(lp1881
I1
aI35
aI36
aa(lp1882
I56
aI51
aI67
aa(lp1883
I1
aI84
aI61
aI79
aa(lp1884
I67
aI47
aI48
aI49
aI54
aI59
aa(lp1885
I48
aI58
aI51
aa(lp1886
I1
aI67
aI44
aI15
aI62
aI31
aa(lp1887
I81
aI44
aI78
aI79
aa(lp1888
I67
aI47
aI49
aI50
aI51
aI57
aa(lp1889
I1
aI6
aI8
aI73
aI27
aI31
aa(lp1890
I1
aI3
aI6
aa(lp1891
I49
aI61
aI47
aa(lp1892
I59
aI67
aI47
aa(lp1893
I1
aI67
aI61
aI59
aI49
aa(lp1894
I48
aI51
aI67
aI46
aI54
aa(lp1895
I1
aI43
aI37
aa(lp1896
I32
aI1
aI39
aI40
aI15
aI62
aa(lp1897
I1
aI67
aI28
aI14
aI15
aa(lp1898
I40
aI1
aI39
aa(lp1899
I1
aI70
aI81
aa(lp1900
I56
aI51
aI67
aa(lp1901
I1
aI18
aI27
aI37
aa(lp1902
I48
aI56
aI67
aI57
aI47
aa(lp1903
I27
aI1
aI31
aI7
aa(lp1904
I40
aI1
aI3
aI39
aa(lp1905
I50
aI51
aI78
aa(lp1906
I8
aI1
aI10
aI3
aI28
aa(lp1907
I48
aI67
aI61
aa(lp1908
I1
aI67
aI8
aI16
aI27
aI62
aI31
aa(lp1909
I1
aI67
aI72
aI75
aI44
aI47
aI84
aI63
aa(lp1910
I17
aI28
aI62
aa(lp1911
I1
aI18
aI59
aa(lp1912
I1
aI77
aI53
aa(lp1913
I1
aI67
aI44
aI47
aI48
aI49
aI50
aI51
aI59
aI62
aa(lp1914
I67
aI78
aI79
aI81
aI62
aI63
aa(lp1915
I51
aI44
aI61
aI46
aI47
aa(lp1916
I1
aI27
aI41
aI15
aa(lp1917
I8
aI10
aI3
aa(lp1918
I1
aI42
aI3
aa(lp1919
I11
aI10
aI3
aa(lp1920
I8
aI1
aI3
aI4
aa(lp1921
I1
aI67
aI44
aI77
aI46
aI48
aa(lp1922
I1
aI67
aI75
aI44
aI46
aI50
aI51
aI63
aa(lp1923
I8
aI1
aI5
aI31
aa(lp1924
I48
aI49
aI67
aI54
aa(lp1925
I1
aI67
aI46
aI47
aI49
aI82
aI62
aa(lp1926
I40
aI1
aI39
aa(lp1927
I73
aI75
aI44
aI47
aI51
aI84
aI86
aI63
aa(lp1928
I1
aI3
aI6
aI38
aI8
aI62
aI31
aa(lp1929
I73
aI74
aI76
aa(lp1930
I8
aI1
aI27
aI4
aI3
aa(lp1931
I1
aI75
aI44
aI77
aI46
aI47
aI84
aI62
aI63
aa(lp1932
I33
aI1
aI27
aI28
aI62
aI31
aa(lp1933
I49
aI78
aI87
aa(lp1934
I49
aI67
aI51
aI62
aI54
aa(lp1935
I72
aI17
aI76
aa(lp1936
I72
aI81
aI82
aI67
aI1
aa(lp1937
I65
aI44
aI1
aa(lp1938
I3
aI1
aI10
aI19
aa(lp1939
I67
aI44
aI48
aI49
aI50
aI51
aI62
aa(lp1940
I1
aI67
aI47
aI60
aI62
aI63
aa(lp1941
I1
aI2
aI3
aI8
aI27
aI28
aI31
aa(lp1942
I1
aI3
aI4
aI6
aa(lp1943
I1
aI67
aI73
aI44
aI47
aI85
aI62
aa(lp1944
I8
aI1
aI3
aI6
aa(lp1945
I31
aI1
aI15
aI33
aa(lp1946
I65
aI31
aI62
aI1
aa(lp1947
I73
aI42
aI74
aI62
aa(lp1948
I1
aI75
aI62
aa(lp1949
I1
aI7
aI15
aI27
aI62
aI31
aa(lp1950
I88
aI65
aI1
aI85
aI73
aa(lp1951
I72
aI73
aI74
aI76
aa(lp1952
I1
aI43
aI37
aI62
aI85
aa(lp1953
I1
aI67
aI73
aI77
aI47
aI48
aI49
aI84
aa(lp1954
I67
aI44
aI46
aa(lp1955
I1
aI3
aI4
aI59
aI62
aI31
aa(lp1956
I17
aI84
aI62
aI65
aa(lp1957
I17
aI67
aI84
aI62
aI63
aa(lp1958
I18
aI75
aI63
aa(lp1959
I1
aI73
aI74
aI47
aI84
aI62
aa(lp1960
I1
aI67
aI44
aI78
aI79
aa(lp1961
I1
aI3
aI10
aI27
aI28
aI31
aa(lp1962
I1
aI67
aI72
aI77
aI84
aI61
aa(lp1963
I84
aI33
aI1
aI77
aI31
aa(lp1964
I1
aI67
aI47
aI48
aI50
aI61
aI62
aa(lp1965
I49
aI67
aI60
aI62
aI47
aa(lp1966
I1
aI28
aI46
aI62
aa(lp1967
I17
aI63
aa(lp1968
I64
aI15
aI7
aa(lp1969
I72
aI17
aI84
aI64
aI65
aa(lp1970
I64
aI70
aa(lp1971
I3
aI1
aI10
aI19
aI6
aa(lp1972
I10
aI3
aI15
aa(lp1973
I64
aI1
aI67
aI28
aI62
aa(lp1974
I1
aI58
aI67
aa(lp1975
I52
aI53
aI55
aa(lp1976
I1
aI42
aa(lp1977
I8
aI3
aI38
aa(lp1978
I10
aI3
aI7
aa(lp1979
I58
aI67
aI44
aI62
aI54
aa(lp1980
I1
aI42
aI38
aa(lp1981
I1
aI38
aI9
aa(lp1982
I3
aI5
aI15
aa(lp1983
I1
aI67
aI44
aI47
aI48
aI49
aI50
aI51
aI59
aa(lp1984
I73
aI75
aI84
aI77
aI63
aa(lp1985
I9
aI42
aI1
aa(lp1986
I64
aI1
aI67
aI72
aI44
aI46
aI47
aI49
aI50
aI51
aI85
aI79
aI62
aa(lp1987
I1
aI67
aI77
aI47
aI48
aI50
aI61
aI62
aa(lp1988
I72
aI73
aI44
aI77
aI47
aI76
aa(lp1989
I64
aI44
aI17
aI84
aI86
aI63
aa(lp1990
I64
aI85
aI7
aa(lp1991
I1
aI3
aI4
aa(lp1992
I1
aI2
aI67
aI44
aI49
aI50
aI54
aI61
aa(lp1993
I32
aI1
aI67
aI64
aI49
aI61
aa(lp1994
I17
aI47
aI44
aI70
aI81
aa(lp1995
I1
aI67
aI44
aI77
aI47
aI49
aI50
aI51
aI52
aa(lp1996
I50
aI44
aI79
aa(lp1997
I1
aI35
aI72
aI73
aI47
aI15
aI62
aI63
aa(lp1998
I18
aI75
aI63
aa(lp1999
I64
aI1
aI67
aI73
aI47
aI59
aI62
aa(lp2000
I33
aI27
aI31
aa(lp2001
I1
aI31
aI15
aa(lp2002
I1
aI60
aI44
aI54
aI15
aa(lp2003
I1
aI67
aI44
aI77
aI47
aI51
aI62
aa(lp2004
I8
aI1
aI3
aI5
aa(lp2005
I1
aI27
aI52
aI53
aI55
aa(lp2006
I49
aI67
aI54
aa(lp2007
I1
aI2
aI4
aI77
aI21
aa(lp2008
I1
aI74
aI73
aa(lp2009
I1
aI3
aI6
aa(lp2010
I65
aI18
aI63
aa(lp2011
I32
aI1
aI67
aI46
aI47
aI51
aI28
aI62
aa(lp2012
I1
aI47
aI60
aI85
aI31
aa(lp2013
I48
aI49
aI56
aa(lp2014
I67
aI3
aI44
aI10
aI53
aa(lp2015
I73
aI17
aI18
aI84
aI62
aI63
aa(lp2016
I8
aI1
aI2
aI27
aI64
aa(lp2017
I1
aI81
aa(lp2018
I25
aI28
aa(lp2019
I1
aI67
aI72
aI73
aI44
aI85
aI62
aa(lp2020
I31
aI17
aI51
aI44
aI81
aa(lp2021
I1
aI27
aa(lp2022
I1
aI19
aa(lp2023
I1
aI31
aI15
aa(lp2024
I8
aI1
aI35
aa(lp2025
I10
aI3
aI4
aI14
aa(lp2026
I1
aI59
aI62
aa(lp2027
I1
aI34
aa(lp2028
I3
aI1
aI19
aI85
aI8
aa(lp2029
I1
aI16
aI24
aI25
aI28
aI31
aa(lp2030
I8
aI10
aI3
aa(lp2031
I41
aI1
aa(lp2032
I27
aI1
aI35
aa(lp2033
I81
aI70
aa(lp2034
I67
aI47
aI48
aI51
aI56
aI57
aa(lp2035
I40
aI1
aI37
aI39
aa(lp2036
I40
aI1
aI15
aI39
aa(lp2037
I16
aI17
aa(lp2038
I65
aI85
aI47
aa(lp2039
I1
aI67
aI21
aI62
aa(lp2040
I1
aI25
aa(lp2041
I8
aI3
aI85
aa(lp2042
I72
aI73
aI74
aI75
aI76
aI62
aI63
aa(lp2043
I73
aI3
aI46
aI47
aa(lp2044
I1
aI37
aI39
aa(lp2045
I67
aI78
aI79
aa(lp2046
I8
aI1
aI18
aI31
aI57
aa(lp2047
I15
aI3
aI7
aa(lp2048
I56
aI49
aa(lp2049
I1
aI42
aa(lp2050
I9
aI34
aI1
aa(lp2051
I64
aI1
aI6
aa(lp2052
I1
aI67
aI47
aI48
aI49
aI59
aa(lp2053
I17
aI15
aI1
aa(lp2054
I64
aI67
aI28
aI62
aa(lp2055
I65
aI86
aa(lp2056
I75
aI63
aa(lp2057
I1
aI42
aa(lp2058
I1
aI43
aI15
aa(lp2059
I8
aI1
aI3
aI6
aa(lp2060
I67
aI72
aI75
aI84
aI86
aI63
aa(lp2061
I1
aI72
aI75
aI47
aI85
aI27
aa(lp2062
I56
aI49
aI51
aa(lp2063
I82
aI44
aI47
aa(lp2064
I72
aI74
aI76
aI77
aa(lp2065
I1
aI52
aI62
aa(lp2066
I1
aI28
aI62
aa(lp2067
I16
aI9
aI1
aa(lp2068
I31
aI1
aI27
aI33
aI7
aa(lp2069
I11
aI1
aI3
aI85
aa(lp2070
I8
aI1
aI28
aI15
aa(lp2071
I67
aI28
aI15
aa(lp2072
I8
aI1
aI3
aa(lp2073
I8
aI9
aI2
aI38
aI1
aa(lp2074
I1
aI75
aI76
aI17
aI62
aI63
aa(lp2075
I64
aI1
aI3
aI4
aI14
aI47
aa(lp2076
I1
aI67
aI44
aI47
aI28
aI62
aa(lp2077
I56
aI57
aI67
aI54
aI1
aa(lp2078
I8
aI1
aI3
aI4
aI33
aa(lp2079
I1
aI31
aI81
aa(lp2080
I8
aI1
aI2
aa(lp2081
I88
aI17
aI46
aa(lp2082
I32
aI1
aI22
aa(lp2083
I32
aI1
aI84
aI62
aa(lp2084
I1
aI67
aI72
aI82
aI61
aI62
aa(lp2085
I50
aI51
aI52
aI47
aa(lp2086
I24
aI1
aI3
aa(lp2087
I17
aI75
aI63
aa(lp2088
I1
aI33
aI31
aa(lp2089
I1
aI42
aI31
aa(lp2090
I8
aI1
aI3
aI85
aI72
aa(lp2091
I48
aI49
aI67
aI59
aI46
aa(lp2092
I67
aI75
aI81
aI84
aI62
aI63
aa(lp2093
I64
aI81
aI51
aa(lp2094
I64
aI1
aI67
aI44
aI46
aI85
aI28
aI62
aa(lp2095
I1
aI67
aI44
aI50
aI51
aI58
aa(lp2096
I1
aI27
aI44
aI33
aI31
aa(lp2097
I56
aI50
aI51
aa(lp2098
I64
aI46
aI47
aI16
aI20
aI86
aI62
aa(lp2099
I32
aI1
aI75
aI31
aa(lp2100
I32
aI1
aI65
aa(lp2101
I1
aI3
aI21
aa(lp2102
I8
aI28
aI4
aa(lp2103
I1
aI67
aI78
aI79
aI59
aI62
aa(lp2104
I1
aI3
aI6
aI15
aa(lp2105
I48
aI49
aI67
aI59
aI1
aa(lp2106
I15
aI1
aI3
aI85
aI31
aa(lp2107
I81
aI90
aI44
aI70
aa(lp2108
I8
aI88
aI27
aa(lp2109
I8
aI10
aI3
aI6
aa(lp2110
I81
aI44
aI47
aa(lp2111
I16
aI1
aI6
aa(lp2112
I27
aI1
aI35
aI36
aa(lp2113
I1
aI34
aI3
aI44
aI85
aI62
aa(lp2114
I81
aI70
aI47
aa(lp2115
I67
aI60
aI61
aI53
aa(lp2116
I8
aI33
aI3
aI27
aa(lp2117
I50
aI51
aI52
aa(lp2118
I1
aI35
aI36
aa(lp2119
I1
aI37
aI22
aI77
aa(lp2120
I84
aI4
aI7
aa(lp2121
I1
aI67
aI47
aI48
aI50
aI85
aI61
aa(lp2122
I1
aI2
aI4
aa(lp2123
I65
aI18
aI84
aI62
aa(lp2124
I48
aI57
aI50
aI67
aI59
aa(lp2125
I1
aI46
aI47
aa(lp2126
I1
aI18
aI41
aa(lp2127
I8
aI18
aI3
aI34
aI62
aa(lp2128
I81
aI51
aI44
aI53
aI49
aa(lp2129
I9
aI2
aI44
aa(lp2130
I1
aI82
aI44
aI78
aI79
aa(lp2131
I8
aI18
aa(lp2132
I65
aI84
aI1
aa(lp2133
I8
aI1
aI3
aI4
aI6
aa(lp2134
I33
aI62
aI70
aa(lp2135
I1
aI10
aI2
aI7
aa(lp2136
I40
aI1
aI62
aI39
aa(lp2137
I48
aI57
aI58
aa(lp2138
I1
aI67
aI47
aI50
aI51
aI57
aI62
aa(lp2139
I72
aI62
aI86
aa(lp2140
I44
aI86
aI63
aa(lp2141
I1
aI2
aI3
aI4
aI22
aa(lp2142
I44
aI77
aI46
aI79
aa(lp2143
I1
aI5
aI8
aI73
aI77
aI47
aa(lp2144
I1
aI67
aI44
aI47
aI49
aI61
aI62
aa(lp2145
I1
aI67
aI77
aI46
aI48
aI50
aI62
aa(lp2146
I1
aI35
aI36
aI13
aa(lp2147
I1
aI37
aI38
aa(lp2148
I1
aI19
aI77
aa(lp2149
I1
aI19
aI57
aa(lp2150
I64
aI72
aI75
aI84
aI62
aI63
aa(lp2151
I67
aI44
aI54
aa(lp2152
I64
aI1
aI67
aI32
aI46
aI47
aI50
aI51
aI62
aI31
aa(lp2153
I49
aI59
aa(lp2154
I49
aI54
aI57
aa(lp2155
I1
aI67
aI47
aI50
aI61
aI62
aa(lp2156
I31
aI1
aI15
aI7
aa(lp2157
I8
aI1
aI4
aa(lp2158
I65
aI75
aI84
aI1
aa(lp2159
I1
aI2
aI20
aa(lp2160
I72
aI73
aI74
aI76
aI46
aI47
aI84
aa(lp2161
I17
aI84
aI33
aa(lp2162
I72
aI73
aI85
aI62
aI1
aa(lp2163
I88
aI1
aa(lp2164
I56
aI57
aI82
aI51
aI67
aa(lp2165
I8
aI10
aI3
aI13
aa(lp2166
I81
aI70
aa(lp2167
I1
aI6
aI31
aa(lp2168
I44
aI78
aI47
aI81
aI82
aI79
aa(lp2169
I64
aI72
aI75
aI85
aI86
aI62
aI63
aa(lp2170
I72
aI73
aI84
aI5
aI62
aa(lp2171
I1
aI44
aI73
aI62
aI47
aa(lp2172
I1
aI42
aI3
aa(lp2173
I32
aI1
aI84
aa(lp2174
I1
aI84
aI85
aI63
aa(lp2175
I1
aI75
aI63
aa(lp2176
I1
aI75
aI67
aI62
aa(lp2177
I1
aI67
aI44
aI46
aI47
aI48
aI49
aI59
aI62
aa(lp2178
I85
aI62
aI63
aa(lp2179
I8
aI1
aI3
aa(lp2180
I16
aI1
aI67
aI44
aI62
aa(lp2181
I8
aI3
aI11
aI6
aa(lp2182
I1
aI67
aI61
aI62
aa(lp2183
I73
aI74
aI44
aI76
aI50
aI51
aI62
aa(lp2184
I28
aI31
aa(lp2185
I64
aI84
aI62
aI63
aa(lp2186
I73
aI44
aI77
aa(lp2187
I1
aI27
aI52
aI53
aI55
aa(lp2188
I72
aI44
aI62
aI46
aI47
aa(lp2189
I1
aI39
aI40
aI8
aI27
aI31
aa(lp2190
I17
aI62
aI47
aa(lp2191
I67
aI46
aI48
aI49
aI50
aI56
aI57
aa(lp2192
I65
aI62
aI63
aa(lp2193
I9
aI3
aI1
aa(lp2194
I32
aI1
aI34
aa(lp2195
I17
aI84
aI31
aa(lp2196
I27
aI1
aI10
aI3
aI38
aa(lp2197
I1
aI84
aI77
aI62
aa(lp2198
I48
aI1
aI67
aI61
aI47
aa(lp2199
I1
aI43
aI37
aa(lp2200
I67
aI44
aI46
aI48
aI49
aI50
aI51
aI56
aa(lp2201
I17
aI2
aI27
aI84
aI62
aa(lp2202
I3
aI1
aI10
aI19
aI11
aa(lp2203
I67
aI1
aI18
aI51
aI55
aa(lp2204
I1
aI44
aI89
aa(lp2205
I56
aI67
aI51
aI61
aI47
aa(lp2206
I59
aI44
aI46
aI79
aa(lp2207
I72
aI73
aI44
aI47
aI76
aI19
aI84
aI87
aa(lp2208
I88
aI65
aI1
aa(lp2209
I1
aI90
aI81
aa(lp2210
I48
aI49
aI51
aI61
aa(lp2211
I1
aI67
aI62
aI59
aa(lp2212
I1
aI67
aI73
aI77
aI46
aI85
aI62
aI31
aa(lp2213
I48
aI49
aI67
aI56
aa(lp2214
I64
aI72
aI62
aa(lp2215
I17
aI75
aI76
aI73
aI63
aa(lp2216
I1
aI27
aI28
aI31
aa(lp2217
I72
aI1
aI75
aI62
aa(lp2218
I1
aI7
aI10
aI44
aI85
aI27
aa(lp2219
I64
aI1
aI67
aI4
aI10
aI11
aI3
aI28
aI62
aa(lp2220
I37
aI72
aI73
aI74
aI76
aI77
aI47
aI84
aa(lp2221
I8
aI1
aI3
aa(lp2222
I1
aI2
aI3
aI4
aI6
aI8
aI10
aa(lp2223
I32
aI1
aI47
aa(lp2224
I64
aI1
aI5
aI6
aI8
aa(lp2225
I72
aI73
aI74
aI76
aI47
aI84
aa(lp2226
I40
aI1
aI39
aa(lp2227
I64
aI52
aI53
aI54
aa(lp2228
I1
aI72
aI44
aI51
aI84
aI85
aI55
aI63
aI53
aa(lp2229
I1
aI4
aI31
aa(lp2230
I1
aI67
aI44
aI59
aa(lp2231
I44
aI78
aI47
aI80
aI50
aI51
aI84
aI79
aa(lp2232
I64
aI1
aI81
aI47
aI49
aI51
aI59
aa(lp2233
I18
aI51
aI62
aa(lp2234
I81
aI90
aI44
aI70
aa(lp2235
I1
aI54
aI62
aa(lp2236
I32
aI67
aI18
aI57
aI61
aI62
aa(lp2237
I1
aI31
aI7
aa(lp2238
I49
aI67
aI59
aI62
aa(lp2239
I84
aI60
aI47
aa(lp2240
I1
aI85
aI77
aI39
aa(lp2241
I27
aI1
aI19
aa(lp2242
I1
aI67
aI59
aI49
aa(lp2243
I27
aI1
aI35
aI62
aI15
aa(lp2244
I57
aI1
aI49
aI79
aa(lp2245
I1
aI79
aI44
aI78
aI47
aI50
aI87
aI59
aa(lp2246
I72
aI1
aI75
aI64
aa(lp2247
I9
aI31
aI77
aI1
aa(lp2248
I1
aI3
aI73
aI76
aI15
aI84
aa(lp2249
I1
aI75
aI63
aa(lp2250
I1
aI2
aI3
aI6
aa(lp2251
I1
aI67
aI44
aI77
aI47
aI50
aI53
aI59
aI62
aa(lp2252
I57
aI44
aI55
aa(lp2253
I51
aI50
aI67
aa(lp2254
I8
aI1
aI3
aI32
aa(lp2255
I56
aI54
aa(lp2256
I1
aI72
aI73
aI74
aI76
aI27
aa(lp2257
I2
aI3
aI6
aa(lp2258
I48
aI49
aI50
aI67
aI54
aa(lp2259
I56
aI1
aI67
aI51
aI57
aa(lp2260
I1
aI3
aI6
aI39
aI8
aI15
aI62
aa(lp2261
I1
aI28
aI31
aa(lp2262
I3
aI1
aI19
aa(lp2263
I48
aI49
aI50
aI59
aI47
aa(lp2264
I11
aI10
aI3
aa(lp2265
I32
aI1
aI63
aa(lp2266
I72
aI74
aI51
aI76
aI47
aa(lp2267
I48
aI49
aI59
aI51
aa(lp2268
I1
aI67
aI72
aI44
aI77
aI84
aa(lp2269
I65
aI18
aI84
aI77
aa(lp2270
I17
aI3
aI1
aa(lp2271
I1
aI51
aI54
aa(lp2272
I72
aI73
aI74
aI76
aI47
aI84
aa(lp2273
I1
aI82
aI44
aI79
aa(lp2274
I64
aI1
aI32
aI7
aI15
aI31
aa(lp2275
I1
aI27
aI33
aI31
aa(lp2276
I81
aI31
aI70
aI33
aa(lp2277
I65
aI72
aI73
aI74
aI76
aI47
aI84
aI62
aa(lp2278
I1
aI42
aI31
aa(lp2279
I16
aI25
aa(lp2280
I17
aI27
aa(lp2281
I1
aI19
aI4
aa(lp2282
I1
aI67
aI49
aI51
aI61
aI62
aa(lp2283
I16
aI9
aI1
aa(lp2284
I1
aI82
aI31
aI44
aI47
aa(lp2285
I1
aI39
aa(lp2286
I9
aI85
aI6
aI1
aa(lp2287
I1
aI70
aI79
aI81
aI84
aI47
aa(lp2288
I65
aI73
aa(lp2289
I1
aI42
aa(lp2290
I56
aI57
aa(lp2291
I32
aI1
aI3
aI8
aI10
aI31
aa(lp2292
I1
aI3
aI59
aa(lp2293
I1
aI67
aI44
aI46
aI47
aI48
aI49
aI50
aI51
aI62
aa(lp2294
I18
aI84
aa(lp2295
I8
aI3
aI5
aa(lp2296
I1
aI42
aa(lp2297
I1
aI67
aI72
aI75
aI44
aI46
aI62
aa(lp2298
I1
aI77
aa(lp2299
I1
aI19
aa(lp2300
I10
aI3
aI85
aa(lp2301
I1
aI3
aI4
aI6
aa(lp2302
I1
aI4
aa(lp2303
I1
aI3
aI4
aI6
aa(lp2304
I65
aI19
aI62
aa(lp2305
I16
aI9
aI85
aa(lp2306
I76
aI73
aI74
aI44
aa(lp2307
I31
aI1
aI3
aI4
aI15
aa(lp2308
I1
aI42
aI38
aa(lp2309
I16
aI1
aI3
aI31
aa(lp2310
I1
aI72
aI44
aI74
aI76
aI18
aa(lp2311
I17
aI44
aI70
aa(lp2312
I67
aI55
aa(lp2313
I1
aI77
aI31
aa(lp2314
I1
aI67
aI62
aI87
aa(lp2315
I1
aI67
aI47
aI48
aI49
aI50
aa(lp2316
I1
aI38
aa(lp2317
I1
aI77
aI85
aa(lp2318
I61
aa(lp2319
I48
aI1
aI50
aI60
aI61
aa(lp2320
I57
aI67
aa(lp2321
I1
aI67
aI44
aI77
aI46
aI47
aI48
aI49
aI62
aa(lp2322
I59
aI79
aa(lp2323
I1
aI43
aI37
aI62
aI85
aa(lp2324
I8
aI5
aa(lp2325
I40
aI1
aI39
aa(lp2326
I48
aI49
aI50
aI87
aa(lp2327
I64
aI1
aI67
aI72
aI78
aI47
aI50
aI51
aI86
aI61
aI62
aa(lp2328
I17
aI27
aI33
aa(lp2329
I58
aI67
aI54
aa(lp2330
I1
aI3
aI41
aa(lp2331
I67
aI75
aI44
aI77
aI47
aI81
aI51
aI84
aI86
aI52
aI62
aa(lp2332
I8
aI10
aa(lp2333
I64
aI65
aI18
aa(lp2334
I8
aI9
aI77
aI1
aa(lp2335
I64
aI1
aI72
aI73
aI74
aI51
aI84
aI62
aI63
aa(lp2336
I8
aI1
aI5
aa(lp2337
I1
aI27
aI35
aa(lp2338
I1
aI67
aI44
aI48
aI49
aI59
aa(lp2339
I73
aI74
aI84
aI77
aI47
aa(lp2340
I72
aI44
aI74
aI76
aI52
aI73
aI27
aI62
aa(lp2341
I1
aI27
aI25
aa(lp2342
I57
aI67
aI55
aa(lp2343
I1
aI49
aI59
aI77
aI79
aa(lp2344
I57
aI50
aI54
aI79
aa(lp2345
I51
aI78
aI47
aa(lp2346
I88
aI1
aI65
aa(lp2347
I1
aI2
aI3
aI21
aI77
aa(lp2348
I27
aI1
aI35
aa(lp2349
I1
aI58
aI27
aI79
aa(lp2350
I24
aI25
aI1
aa(lp2351
I84
aI73
aI74
aI76
aa(lp2352
I81
aI44
aI62
aa(lp2353
I1
aI42
aI28
aa(lp2354
I1
aI10
aI6
aa(lp2355
I81
aI44
aI86
aa(lp2356
I1
aI58
aI31
aa(lp2357
I8
aI4
aa(lp2358
I72
aI73
aI74
aI76
aI77
aI52
aI62
aa(lp2359
I33
aI27
aI1
aa(lp2360
I72
aI73
aI74
aI76
aI47
aI84
aa(lp2361
I72
aI1
aI67
aI37
aI62
aa(lp2362
I1
aI18
aI27
aa(lp2363
I73
aI74
aI76
aI77
aa(lp2364
I1
aI35
aI36
aa(lp2365
I1
aI72
aI75
aI44
aI47
aI48
aI51
aI54
aI57
aI61
aa(lp2366
I1
aI3
aI38
aa(lp2367
I81
aI10
aI70
aa(lp2368
I84
aI73
aI74
aI44
aI47
aa(lp2369
I1
aI18
aI42
aa(lp2370
I1
aI67
aI73
aI74
aI47
aI48
aa(lp2371
I64
aI17
aI86
aa(lp2372
I67
aI44
aI79
aI81
aI53
aI56
aI57
aI47
aa(lp2373
I1
aI46
aI44
aI78
aI47
aI48
aI82
aI51
aI53
aI57
aI79
aa(lp2374
I1
aI3
aI22
aa(lp2375
I1
aI28
aI62
aa(lp2376
I1
aI67
aI54
aI77
aI47
aI51
aI86
aa(lp2377
I1
aI67
aI47
aI50
aI51
aI53
aI54
aI55
aI57
aI62
aa(lp2378
I1
aI67
aI44
aI47
aI81
aI50
aI51
aI85
aI62
aa(lp2379
I17
aI31
aI65
aa(lp2380
I1
aI3
aI6
aa(lp2381
I16
aI9
aI1
aa(lp2382
I1
aI67
aI47
aI48
aI49
aI50
aI51
aI54
aI61
aa(lp2383
I1
aI67
aI84
aI62
aI15
aa(lp2384
I9
aI42
aI1
aa(lp2385
I1
aI10
aI3
aI6
aa(lp2386
I1
aI27
aI28
aI31
aa(lp2387
I1
aI2
aI28
aa(lp2388
I1
aI60
aI47
aa(lp2389
I65
aI2
aI62
aa(lp2390
I17
aI84
aI33
aI63
aa(lp2391
I1
aI3
aI8
aI11
aI15
aI85
aI31
aa(lp2392
I1
aI67
aI75
aI47
aI73
aa(lp2393
I56
aI49
aI51
aa(lp2394
I81
aI44
aI46
aI47
aI80
aI49
aI50
aI51
aI55
aI79
aI62
aa(lp2395
I1
aI67
aI44
aI47
aI48
aI49
aI50
aI51
aI28
aI62
aa(lp2396
I64
aI17
aI67
aI62
aI46
aa(lp2397
I1
aI72
aI76
aI77
aI47
aI51
aa(lp2398
I49
aI59
aa(lp2399
I72
aI84
aI74
aI76
aI62
aa(lp2400
I80
aI44
aI78
aI79
aa(lp2401
I1
aI19
aI21
aa(lp2402
I1
aI3
aI28
aI9
aa(lp2403
I88
aI67
aI61
aI15
aa(lp2404
I1
aI35
aI36
aa(lp2405
I65
aI84
aI1
aa(lp2406
I16
aI1
aI3
aI13
aa(lp2407
I18
aI63
aa(lp2408
I1
aI2
aI3
aI38
aI9
aI15
aI28
aa(lp2409
I1
aI2
aI3
aI6
aI10
aI13
aI14
aI31
aa(lp2410
I64
aI73
aI67
aI62
aa(lp2411
I72
aI64
aI51
aI86
aI63
aa(lp2412
I1
aI43
aI62
aa(lp2413
I40
aI1
aI37
aa(lp2414
I17
aI33
aI31
aa(lp2415
I73
aI67
aI76
aI46
aa(lp2416
I9
aI44
aI70
aa(lp2417
I1
aI6
aI62
aa(lp2418
I64
aI67
aI44
aI84
aI86
aI62
aa(lp2419
I51
aI3
aI1
aI44
aI46
aI47
aI48
aI49
aI50
aI67
aI56
aI27
aI28
aI62
aI31
aa(lp2420
I17
aI84
aI65
aI1
aa(lp2421
I8
aI13
aI6
aa(lp2422
I1
aI67
aI44
aI47
aI84
aI58
aI62
aa(lp2423
I3
aI8
aI10
aI11
aa(lp2424
I1
aI63
aI73
aI47
aa(lp2425
I1
aI67
aI77
aI47
aI59
aI62
aa(lp2426
I8
aI1
aI27
aa(lp2427
I49
aI67
aI59
aI44
aa(lp2428
I64
aI73
aI44
aI77
aI47
aI17
aI84
aa(lp2429
I1
aI3
aI41
aa(lp2430
I1
aI15
aI44
aI39
aa(lp2431
I1
aI67
aI72
aI73
aI44
aI77
aI47
aI27
aI60
aI62
aa(lp2432
I1
aI67
aI77
aa(lp2433
I1
aI70
aa(lp2434
I1
aI82
aI44
aa(lp2435
I1
aI3
aI6
aI8
aI15
aI18
aI31
aa(lp2436
I1
aI2
aI3
aI6
aa(lp2437
I64
aI17
aI15
aa(lp2438
I1
aI27
aI35
aa(lp2439
I17
aI62
aI47
aa(lp2440
I1
aI67
aI73
aI44
aI79
aI49
aI50
aI51
aI47
aa(lp2441
I72
aI1
aI64
aI63
aa(lp2442
I67
aI52
aa(lp2443
I1
aI3
aI20
aI21
aa(lp2444
I1
aI43
aI37
aa(lp2445
I57
aI67
aI51
aI55
aa(lp2446
I1
aI6
aI33
aI10
aI27
aI31
aa(lp2447
I1
aI67
aI44
aI50
aI51
aI84
aI52
aI62
aI31
aa(lp2448
I44
aI78
aI79
aI80
aI81
aI82
aI51
aI87
aI47
aa(lp2449
I64
aI1
aI67
aI15
aI18
aI51
aI54
aI62
aa(lp2450
I1
aI50
aI44
aI82
aI79
aa(lp2451
I1
aI62
aI7
aa(lp2452
I1
aI67
aI79
aa(lp2453
I10
aI11
aI15
aa(lp2454
I1
aI67
aI60
aI47
aI50
aI51
aI28
aI62
aa(lp2455
I40
aI1
aI37
aI39
aa(lp2456
I64
aI81
aI82
aI79
aa(lp2457
I1
aI18
aI27
aa(lp2458
I1
aI27
aI85
aI31
aa(lp2459
I1
aI77
aI31
aa(lp2460
I3
aI1
aI35
aI36
aa(lp2461
I40
aI1
aI62
aI39
aa(lp2462
I1
aI65
aI77
aI27
aI62
aI63
aa(lp2463
I64
aI1
aI67
aI44
aI46
aI47
aI48
aI49
aI51
aI59
aI62
aa(lp2464
I1
aI15
aI33
aa(lp2465
I8
aI41
aI3
aI1
aI7
aa(lp2466
I1
aI10
aI3
aa(lp2467
I17
aI73
aI1
aa(lp2468
I17
aI18
aI63
aa(lp2469
I8
aI1
aI3
aI5
aa(lp2470
I1
aI44
aI7
aa(lp2471
I64
aI67
aI49
aI44
aI79
aI81
aI82
aI51
aI84
aI85
aI86
aI62
aa(lp2472
I9
aI1
aI15
aa(lp2473
I1
aI10
aI3
aI6
aa(lp2474
I17
aI90
aI44
aI81
aa(lp2475
I65
aI18
aI31
aa(lp2476
I72
aI1
aI18
aI63
aa(lp2477
I1
aI2
aI3
aI8
aI11
aI67
aI27
aI62
aa(lp2478
I64
aI1
aI10
aI3
aa(lp2479
I1
aI18
aa(lp2480
I1
aI27
aI36
aI35
aa(lp2481
I88
aI1
aI62
aa(lp2482
I81
aI82
aI79
aI44
aI47
aa(lp2483
I1
aI67
aI61
aa(lp2484
I1
aI21
aI9
aa(lp2485
I67
aI72
aI77
aI15
aI51
aI84
aI63
aa(lp2486
I67
aI72
aI77
aI81
aI82
aI84
aI62
aI63
aa(lp2487
I64
aI1
aI43
aI62
aI15
aa(lp2488
I1
aI43
aI37
aI62
aa(lp2489
I50
aI84
aI53
aI77
aI55
aa(lp2490
I1
aI67
aI44
aI47
aI48
aI49
aI59
aI28
aI62
aa(lp2491
I17
aI62
aa(lp2492
I1
aI2
aI19
aa(lp2493
I88
aI1
aI67
aI62
aI47
aa(lp2494
I1
aI10
aI3
aI6
aa(lp2495
I1
aI34
aI43
aa(lp2496
I56
aI51
aI62
aa(lp2497
I84
aI17
aI76
aa(lp2498
I9
aI67
aI28
aI62
aI1
aa(lp2499
I49
aI67
aI84
aI57
aa(lp2500
I81
aI44
aI47
aa(lp2501
I16
aI1
aI76
aa(lp2502
I8
aI1
aI28
aa(lp2503
I67
aI75
aI47
aI51
aI84
aI54
aa(lp2504
I67
aI47
aI48
aI49
aI50
aI51
aa(lp2505
I1
aI27
aI35
aa(lp2506
I17
aI90
aI44
aI81
aa(lp2507
I1
aI2
aI62
aa(lp2508
I8
aI10
aI3
aI14
aa(lp2509
I1
aI27
aI77
aa(lp2510
I1
aI67
aI61
aI47
aa(lp2511
I1
aI36
aI41
aa(lp2512
I56
aI18
aI51
aa(lp2513
I1
aI3
aI50
aI51
aI27
aI31
aa(lp2514
I1
aI82
aI62
aa(lp2515
I1
aI10
aI6
aa(lp2516
I67
aI44
aI49
aI50
aI51
aI86
aI55
aI62
aI31
aa(lp2517
I1
aI3
aI28
aa(lp2518
I16
aI25
aI21
aI64
aa(lp2519
I18
aI34
aI62
aa(lp2520
I1
aI34
aI67
aI46
aI47
aI62
aa(lp2521
I9
aI31
aI28
aI62
aI1
aa(lp2522
I1
aI3
aI33
aa(lp2523
I65
aI75
aI44
aI47
aI1
aa(lp2524
I1
aI28
aI53
aI31
aa(lp2525
I65
aI1
aI44
aI47
aI84
aI62
aa(lp2526
I1
aI35
aI36
aI13
aa(lp2527
I27
aI1
aI35
aa(lp2528
I8
aI33
aI27
aI1
aI31
aa(lp2529
I75
aI84
aI85
aI86
aI62
aI63
aa(lp2530
I31
aI1
aI27
aI25
aa(lp2531
I9
aI18
aI1
aa(lp2532
I1
aI34
aI9
aa(lp2533
I17
aI18
aI65
aI1
aa(lp2534
I18
aI3
aI6
aa(lp2535
I8
aI1
aI3
aa(lp2536
I1
aI67
aI48
aI49
aI51
aI62
aI63
aa(lp2537
I67
aI44
aI50
aI78
aI79
aI81
aI82
aI47
aa(lp2538
I67
aI78
aI80
aI51
aI86
aI62
aa(lp2539
I1
aI2
aI28
aa(lp2540
I8
aI1
aI3
aI77
aI14
aa(lp2541
I1
aI38
aI31
aa(lp2542
I58
aI67
aI62
aI47
aa(lp2543
I64
aI1
aI10
aa(lp2544
I1
aI67
aI50
aI47
aI18
aI51
aI62
aa(lp2545
I67
aI60
aI47
aa(lp2546
I1
aI36
aI41
aI15
aa(lp2547
I72
aI74
aI76
aI62
aa(lp2548
I64
aI72
aI76
aI74
aI44
aI47
aI84
aI88
aI90
aI62
aa(lp2549
I17
aI51
aI65
aa(lp2550
I8
aI1
aI10
aI3
aa(lp2551
I1
aI84
aI13
aa(lp2552
I17
aI31
aI65
aa(lp2553
I25
aI1
aI31
aa(lp2554
I1
aI27
aI35
aa(lp2555
I1
aI44
aI78
aI79
aI49
aI47
aa(lp2556
I64
aI1
aI67
aI72
aI73
aI84
aI86
aI61
aI62
aa(lp2557
I81
aI90
aI44
aa(lp2558
I1
aI28
aI77
aI47
aa(lp2559
I1
aI18
aI34
aa(lp2560
I64
aI1
aI75
aI44
aI46
aI63
aa(lp2561
I27
aI1
aI3
aI6
aa(lp2562
I1
aI67
aI77
aI46
aI47
aI51
aI62
aa(lp2563
I32
aI1
aI62
aa(lp2564
I8
aI1
aI10
aa(lp2565
I56
aI51
aI44
aa(lp2566
I52
aI53
aI55
aa(lp2567
I1
aI38
aI41
aa(lp2568
I64
aI67
aI47
aI51
aI86
aI62
aI63
aa(lp2569
I1
aI67
aI47
aI54
aI58
aI63
aI62
aI31
aa(lp2570
I8
aI1
aI3
aI13
aa(lp2571
I32
aI67
aI72
aI84
aI62
aI63
aa(lp2572
I1
aI42
aa(lp2573
I8
aI1
aI2
aI3
aa(lp2574
I8
aI1
aI3
aa(lp2575
I1
aI10
aI3
aa(lp2576
I72
aI18
aI62
aI63
aa(lp2577
I1
aI42
aa(lp2578
I1
aI3
aI38
aa(lp2579
I1
aI47
aI48
aI59
aI62
aI31
aa(lp2580
I1
aI3
aI6
aa(lp2581
I64
aI1
aI72
aI84
aI85
aI86
aI62
aa(lp2582
I1
aI42
aI3
aa(lp2583
I57
aI55
aI44
aI62
aI47
aa(lp2584
I49
aI78
aI81
aa(lp2585
I8
aI1
aa(lp2586
I17
aI1
aa(lp2587
I8
aI3
aa(lp2588
I48
aI67
aI61
aa(lp2589
I67
aI44
aI46
aI48
aI49
aI50
aI51
aI54
aI57
aI62
aa(lp2590
I15
aI33
aI27
aI1
aa(lp2591
I58
aI59
aa(lp2592
I1
aI3
aI62
aI87
aa(lp2593
I11
aI8
aI3
aI13
aa(lp2594
I60
aa(lp2595
I8
aI1
aI44
aI46
aa(lp2596
I67
aI49
aI79
aI81
aI51
aI52
aI85
aI87
aI62
aa(lp2597
I1
aI59
aI87
aa(lp2598
I81
aI78
aI79
aa(lp2599
I82
aI44
aI78
aI79
aa(lp2600
I1
aI2
aI3
aI8
aI34
aI15
aa(lp2601
I1
aI43
aa(lp2602
I19
aI21
aa(lp2603
I81
aI90
aI47
aa(lp2604
I31
aI9
aI2
aI27
aI1
aa(lp2605
I1
aI77
aI6
aa(lp2606
I1
aI33
aI3
aI13
aI31
aa(lp2607
I1
aI10
aI3
aI6
aa(lp2608
I8
aI1
aI3
aI5
aa(lp2609
I8
aI1
aI4
aa(lp2610
I1
aI28
aI21
aa(lp2611
I1
aI5
aI31
aa(lp2612
I1
aI62
aI73
aa(lp2613
I72
aI18
aI63
aa(lp2614
I67
aI59
aI47
aa(lp2615
I1
aI67
aI44
aI47
aI84
aI58
aI62
aa(lp2616
I1
aI90
aI81
aa(lp2617
I1
aI67
aI47
aI48
aI49
aI50
aI62
aI31
aa(lp2618
I64
aI67
aI84
aI62
aa(lp2619
I40
aI1
aI37
aI39
aa(lp2620
I1
aI90
aI47
aI65
aI81
aa(lp2621
I1
aI67
aI44
aI46
aI47
aI49
aI61
aI62
aa(lp2622
I1
aI77
aI62
aa(lp2623
I8
aI1
aI3
aI11
aa(lp2624
I16
aI1
aI18
aa(lp2625
I1
aI2
aI10
aI13
aa(lp2626
I1
aI10
aI3
aI85
aa(lp2627
I1
aI28
aI31
aa(lp2628
I64
aI17
aI44
aI62
aI63
aa(lp2629
I40
aI1
aI39
aa(lp2630
I72
aI17
aI51
aI84
aa(lp2631
I1
aI67
aI81
aI51
aI62
aI31
aa(lp2632
I3
aI27
aI31
aa(lp2633
I56
aI57
aI59
aa(lp2634
I1
aI61
aI47
aa(lp2635
I72
aI75
aI63
aa(lp2636
I33
aI65
aI44
aI81
aI82
aI27
aI31
aa(lp2637
I40
aI1
aI37
aI39
aa(lp2638
I1
aI75
aI44
aI17
aI62
aI63
aa(lp2639
I1
aI3
aI6
aa(lp2640
I1
aI70
aI44
aI47
aI81
aI51
aI90
aa(lp2641
I1
aI67
aI46
aI48
aI49
aI61
aa(lp2642
I1
aI62
aI63
aa(lp2643
I49
aI50
aI67
aI61
aI47
aa(lp2644
I1
aI31
aI44
aI77
aI47
aa(lp2645
I59
aI44
aI47
aa(lp2646
I32
aI1
aI84
aI22
aa(lp2647
I11
aI8
aI3
aa(lp2648
I40
aI1
aI37
aI39
aa(lp2649
I64
aI1
aI67
aI75
aI78
aI85
aI62
aI63
aa(lp2650
I64
aI85
aI15
aa(lp2651
I32
aI1
aI3
aa(lp2652
I8
aI1
aI3
aa(lp2653
I17
aI75
aI65
aI63
aa(lp2654
I27
aI1
aI19
aa(lp2655
I8
aI1
aI10
aI3
aa(lp2656
I16
aI10
aI3
aa(lp2657
I24
aI8
aI3
aa(lp2658
I8
aI1
aI33
aI21
aI25
aa(lp2659
I10
aI3
aI13
aa(lp2660
I81
aI44
aI79
aa(lp2661
I1
aI43
aI62
aI15
aa(lp2662
I32
aI1
aI27
aI41
aa(lp2663
I17
aI18
aI65
aa(lp2664
I1
aI75
aI31
aa(lp2665
I72
aI62
aa(lp2666
I1
aI3
aI33
aa(lp2667
I67
aI28
aI14
aI15
aa(lp2668
I51
aI50
aI67
aa(lp2669
I1
aI84
aI77
aa(lp2670
I1
aI67
aI48
aI49
aI51
aI57
aI59
aa(lp2671
I40
aI1
aI37
aI39
aa(lp2672
I64
aI1
aI75
aI63
aa(lp2673
I67
aI46
aI47
aI84
aI86
aI62
aa(lp2674
I1
aI36
aI15
aa(lp2675
I1
aI42
aI3
aI62
aa(lp2676
I64
aI67
aI81
aI44
aI47
aI48
aI49
aI50
aI51
aI52
aI86
aI56
aI79
aI62
aa(lp2677
I82
aI67
aI62
aa(lp2678
I64
aI1
aI37
aI72
aI62
aI63
aa(lp2679
I1
aI54
aa(lp2680
I72
aI73
aI74
aI76
aa(lp2681
I1
aI75
aI77
aI63
aa(lp2682
I8
aI1
aI33
aa(lp2683
I72
aI65
aI62
aI33
aa(lp2684
I57
aI67
aI51
aI84
aI79
aa(lp2685
I44
aI46
aI79
aI81
aI50
aI47
aa(lp2686
I27
aI1
aI35
aa(lp2687
I40
aI1
aI3
aI6
aI39
aa(lp2688
I1
aI67
aI72
aI84
aI60
aI61
aI62
aa(lp2689
I81
aI51
aI44
aI79
aa(lp2690
I64
aI72
aI78
aI79
aI81
aI50
aa(lp2691
I3
aI1
aI19
aI27
aa(lp2692
I17
aI75
aI63
aa(lp2693
I1
aI67
aI47
aI49
aI50
aI51
aI53
aI62
aa(lp2694
I9
aI42
aI38
aI1
aa(lp2695
I33
aI27
aI84
aI63
aa(lp2696
I1
aI35
aI36
aa(lp2697
I72
aI1
aI27
aI33
aa(lp2698
I17
aI67
aI62
aa(lp2699
I27
aI1
aI31
aI84
aI15
aa(lp2700
I50
aI51
aI60
aa(lp2701
I1
aI67
aI44
aI46
aI47
aI49
aI54
aI62
aa(lp2702
I31
aI1
aI27
aI15
aa(lp2703
I81
aI90
aI70
aa(lp2704
I1
aI43
aI15
aa(lp2705
I51
aI67
aI84
aI54
aa(lp2706
I9
aI3
aI7
aa(lp2707
I1
aI34
aI15
aa(lp2708
I9
aI31
aI1
aa(lp2709
I56
aI57
aI50
aI67
aa(lp2710
I17
aI44
aI1
aI81
aa(lp2711
I67
aI47
aI50
aI51
aI56
aI57
aa(lp2712
I49
aI67
aI61
aa(lp2713
I1
aI77
aI31
aa(lp2714
I64
aI17
aI84
aI62
aI33
aa(lp2715
I31
aI1
aI3
aI33
aa(lp2716
I1
aI67
aI44
aI46
aI48
aI51
aI59
aa(lp2717
I67
aI44
aI46
aI47
aa(lp2718
I1
aI28
aI31
aa(lp2719
I1
aI2
aI3
aI6
aI8
aI10
aI15
aa(lp2720
I72
aI82
aI63
aa(lp2721
I81
aI44
aI70
aI47
aa(lp2722
I72
aI73
aI74
aI76
aI77
aI62
aa(lp2723
I8
aI1
aI3
aI6
aa(lp2724
I1
aI44
aI47
aI48
aI85
aI86
aI61
aa(lp2725
I82
aI62
aI78
aa(lp2726
I72
aI44
aI74
aI76
aI47
aI84
aa(lp2727
I1
aI78
aI79
aI49
aI82
aI51
aI61
aa(lp2728
I67
aI44
aI47
aI51
aI52
aI61
aa(lp2729
I1
aI67
aI44
aI76
aI46
aI47
aI48
aI49
aI50
aI73
aI62
aa(lp2730
I1
aI52
aI57
aa(lp2731
I17
aI65
aI73
aa(lp2732
I8
aI1
aI3
aI4
aI31
aa(lp2733
I65
aI62
aI1
aa(lp2734
I32
aI1
aI67
aI44
aI77
aI46
aI49
aI88
aI61
aI62
aa(lp2735
I1
aI3
aI4
aa(lp2736
I64
aI17
aI62
aa(lp2737
I73
aI67
aI86
aI62
aI1
aa(lp2738
I64
aI1
aI67
aI73
aI75
aI44
aI84
aI86
aI62
aI63
aa(lp2739
I64
aI72
aI44
aI84
aI86
aI62
aa(lp2740
I64
aI1
aI43
aI37
aI62
aa(lp2741
I9
aI27
aI1
aI22
aI31
aa(lp2742
I1
aI3
aI10
aI11
aI44
aI47
aa(lp2743
I32
aI1
aI62
aa(lp2744
I1
aI82
aI60
aI49
aa(lp2745
I1
aI43
aI84
aI85
aI62
aa(lp2746
I81
aI90
aI44
aI86
aI47
aa(lp2747
I88
aI57
aa(lp2748
I8
aI1
aI2
aI3
aI6
aa(lp2749
I72
aI74
aI76
aI77
aI47
aI17
aI84
aI62
aa(lp2750
I1
aI51
aI28
aI62
aa(lp2751
I17
aI18
aI51
aI44
aI81
aa(lp2752
I40
aI1
aI37
aa(lp2753
I81
aI67
aI44
aI79
aa(lp2754
I1
aI2
aI21
aI6
aa(lp2755
I32
aI1
aI6
aI31
aa(lp2756
I1
aI34
aI31
aa(lp2757
I67
aI44
aI46
aI47
aI51
aI84
aI85
aI86
aa(lp2758
I56
aI67
aI53
aa(lp2759
I1
aI67
aI44
aI77
aI47
aa(lp2760
I1
aI59
aI44
aa(lp2761
I1
aI87
aI49
aa(lp2762
I1
aI3
aI6
aa(lp2763
I78
aI47
aI49
aI50
aI54
aI57
aa(lp2764
I1
aI44
aI57
aI73
aa(lp2765
I67
aI51
aI61
aa(lp2766
I1
aI19
aI28
aI20
aa(lp2767
I49
aI67
aI61
aa(lp2768
I60
aI61
aI54
aa(lp2769
I8
aI10
aI3
aI7
aa(lp2770
I1
aI90
aI44
aa(lp2771
I1
aI2
aI67
aI65
aI72
aI51
aI27
aI62
aI31
aa(lp2772
I40
aI1
aI62
aa(lp2773
I1
aI18
aI58
aI62
aa(lp2774
I8
aI1
aI10
aI3
aa(lp2775
I64
aI1
aI3
aI4
aI8
aI10
aI13
aa(lp2776
I1
aI27
aI84
aI62
aI73
aa(lp2777
I72
aI73
aI74
aI76
aI17
aI87
aI62
aa(lp2778
I1
aI75
aI62
aI63
aa(lp2779
I27
aI1
aI2
aI31
aI15
aa(lp2780
I1
aI43
aI37
aI62
aa(lp2781
I1
aI2
aI3
aa(lp2782
I48
aI49
aI50
aI67
aI58
aa(lp2783
I49
aI44
aI78
aI79
aI48
aI81
aI82
aI51
aI47
aa(lp2784
I8
aI3
aI13
aI14
aa(lp2785
I1
aI61
aI62
aa(lp2786
I51
aI78
aI47
aa(lp2787
I1
aI67
aI44
aI77
aI46
aI47
aI49
aI51
aI59
aa(lp2788
I1
aI67
aI61
aI54
aI47
aa(lp2789
I16
aI17
aI1
aa(lp2790
I44
aI78
aI79
aI81
aI82
aI51
aI53
aI47
aI62
aa(lp2791
I81
aI86
aI47
aa(lp2792
I64
aI1
aI67
aI75
aI44
aI78
aI79
aI51
aI59
aa(lp2793
I1
aI77
aI33
aa(lp2794
I58
aI51
aI54
aI47
aa(lp2795
I1
aI15
aI28
aI31
aa(lp2796
I40
aI1
aI39
aa(lp2797
I72
aI51
aI86
aI62
aI63
aa(lp2798
I1
aI36
aI47
aa(lp2799
I1
aI85
aI15
aa(lp2800
I1
aI77
aI15
aa(lp2801
I67
aI44
aI46
aI48
aI49
aI51
aI54
aa(lp2802
I67
aI47
aI48
aI50
aI51
aI57
aa(lp2803
I40
aI1
aI37
aI39
aa(lp2804
I1
aI27
aI44
aI33
aa(lp2805
I1
aI27
aI85
aI6
aI31
aa(lp2806
I1
aI3
aI85
aa(lp2807
I55
aI52
aI47
aa(lp2808
I1
aI73
aI75
aI44
aI84
aI63
aa(lp2809
I1
aI3
aI6
aa(lp2810
I84
aI1
aI75
aI44
aI63
aa(lp2811
I1
aI34
aI44
aa(lp2812
I1
aI18
aI42
aa(lp2813
I1
aI74
aI47
aI84
aI73
aa(lp2814
I1
aI48
aI49
aI51
aI59
aI63
aa(lp2815
I44
aI18
aI87
aI20
aI1
aa(lp2816
I1
aI73
aI75
aI44
aI47
aI84
aI63
aa(lp2817
I8
aI1
aI3
aa(lp2818
I1
aI73
aI74
aI76
aI77
aI62
aa(lp2819
I2
aI3
aI28
aa(lp2820
I1
aI75
aI44
aI63
aa(lp2821
I1
aI3
aI8
aI10
aI11
aI13
aa(lp2822
I1
aI3
aI33
aa(lp2823
I1
aI2
aI33
aI8
aI27
aI31
aa(lp2824
I72
aI73
aI74
aI76
aa(lp2825
I32
aI1
aI7
aa(lp2826
I72
aI18
aI62
aa(lp2827
I1
aI84
aI77
aI31
aa(lp2828
I64
aI49
aI44
aI46
aI79
aI80
aI81
aI51
aI84
aI87
aI47
aa(lp2829
I58
aI67
aI54
aI47
aa(lp2830
I1
aI35
aI36
aa(lp2831
I3
aI6
aa(lp2832
I64
aI65
aI72
aI62
aI73
aa(lp2833
I48
aI49
aI58
aI67
aI62
aa(lp2834
I48
aI61
aa(lp2835
I1
aI7
aI44
aI51
aI52
aI62
aa(lp2836
I3
aI15
aa(lp2837
I1
aI15
aa(lp2838
I81
aI90
aI44
aa(lp2839
I8
aI1
aI3
aI4
aa(lp2840
I1
aI18
aa(lp2841
I81
aI44
aa(lp2842
I1
aI19
aa(lp2843
I1
aI35
aa(lp2844
I1
aI67
aI28
aI62
aa(lp2845
I24
aI21
aI22
aa(lp2846
I16
aI15
aa(lp2847
I56
aI48
aI50
aI51
aI67
aa(lp2848
I16
aI1
aa(lp2849
I1
aI67
aI62
aI59
aa(lp2850
I81
aI44
aI47
aI48
aI49
aI50
aI51
aI79
aa(lp2851
I11
aI1
aI2
aI3
aI13
aa(lp2852
I44
aI79
aI48
aI50
aI47
aI61
aa(lp2853
I82
aI78
aa(lp2854
I50
aI59
aa(lp2855
I65
aI33
aa(lp2856
I8
aI3
aI13
aa(lp2857
I1
aI19
aa(lp2858
I81
aI79
aa(lp2859
I1
aI59
aI84
aI27
aI62
aI63
aa(lp2860
I1
aI67
aI62
aI59
aI47
aa(lp2861
I8
aI1
aI5
aa(lp2862
I48
aI49
aI58
aI67
aI54
aa(lp2863
I38
aa(lp2864
I1
aI58
aI9
aa(lp2865
I64
aI1
aI72
aI48
aI50
aI88
aI62
aI63
aa(lp2866
I1
aI27
aa(lp2867
I72
aI17
aa(lp2868
I8
aI1
aI3
aI14
aa(lp2869
I81
aI70
aa(lp2870
I8
aI20
aa(lp2871
I85
aI15
aa(lp2872
I67
aI47
aI48
aI51
aI53
aI86
aa(lp2873
I1
aI19
aI9
aa(lp2874
I64
aI78
aI79
aI81
aI47
aI62
aa(lp2875
I8
aI1
aI2
aI3
aI28
aa(lp2876
I1
aI2
aI67
aI44
aI46
aI47
aI84
aa(lp2877
I64
aI49
aI67
aI54
aI47
aa(lp2878
I67
aI79
aa(lp2879
I32
aI1
aI3
aa(lp2880
I8
aI10
aI3
aI6
aa(lp2881
I48
aI61
aI47
aa(lp2882
I64
aI1
aI67
aI72
aI46
aI48
aI49
aI51
aI61
aa(lp2883
I17
aI90
aI81
aa(lp2884
I40
aI1
aI85
aI39
aa(lp2885
I64
aI1
aI59
aI44
aI47
aa(lp2886
I1
aI18
aI34
aa(lp2887
I1
aI73
aI62
aI65
aa(lp2888
I44
aI82
aI46
aI79
aI81
aI50
aI51
aI52
aI47
aa(lp2889
I51
aI44
aI79
aa(lp2890
I65
aI75
aI1
aa(lp2891
I1
aI67
aI44
aI47
aI48
aI49
aI50
aI51
aI62
aa(lp2892
I73
aI75
aI77
aI62
aI1
aa(lp2893
I1
aI3
aI28
aI9
aa(lp2894
I73
aI75
aI76
aI17
aI84
aI62
aI63
aa(lp2895
I1
aI33
aI44
aI78
aI79
aI81
aI82
aI51
aI47
aa(lp2896
I88
aI1
aI84
aa(lp2897
I40
aI1
aI62
aI39
aa(lp2898
I51
aI50
aI67
aI47
aa(lp2899
I72
aI1
aI32
aa(lp2900
I1
aI3
aI60
aa(lp2901
I1
aI84
aI85
aI31
aa(lp2902
I1
aI38
aI9
aa(lp2903
I1
aI79
aI47
aa(lp2904
I1
aI9
aI16
aI51
aI52
aI31
aa(lp2905
I1
aI67
aI44
aI46
aI48
aI49
aI50
aI86
aI62
aa(lp2906
I1
aI3
aI15
aa(lp2907
I8
aI10
aI3
aa(lp2908
I8
aI1
aI3
aI4
aa(lp2909
I59
aI78
aI47
aa(lp2910
I1
aI67
aI46
aI47
aI48
aI50
aI57
aI62
aa(lp2911
I65
aI67
aI1
aI44
aI90
aI62
aI31
aa(lp2912
I88
aI65
aI85
aI1
aa(lp2913
I72
aI74
aI76
aI77
aI51
aI62
aa(lp2914
I8
aI1
aI3
aI77
aI15
aa(lp2915
I50
aI51
aI54
aa(lp2916
I40
aI1
aI39
aa(lp2917
I32
aI17
aI84
aa(lp2918
I40
aI1
aI3
aI31
aa(lp2919
I1
aI81
aI73
aI44
aI78
aI47
aI80
aI17
aI82
aI51
aI85
aa(lp2920
I3
aI1
aI27
aI8
aa(lp2921
I49
aI59
aI47
aa(lp2922
I18
aI34
aa(lp2923
I1
aI2
aI67
aI10
aI44
aI62
aa(lp2924
I65
aI52
aI1
aa(lp2925
I8
aI10
aI3
aa(lp2926
I81
aI82
aI79
aa(lp2927
I1
aI37
aI62
aI39
aa(lp2928
I88
aI1
aI46
aa(lp2929
I1
aI2
aI3
aI6
aI31
aa(lp2930
I18
aI75
aI63
aa(lp2931
I41
aI15
aI1
aa(lp2932
I88
aI65
aI44
aI1
aa(lp2933
I1
aI44
aI61
aI81
aI49
aa(lp2934
I59
aI77
aI79
aa(lp2935
I67
aI76
aI74
aI44
aI78
aI47
aI49
aI51
aI84
aI79
aI62
aa(lp2936
I1
aI27
aI28
aa(lp2937
I1
aI3
aI77
aa(lp2938
I1
aI72
aI73
aI74
aI76
aI77
aI47
aI62
aa(lp2939
I1
aI10
aI67
aI15
aa(lp2940
I1
aI20
aI6
aa(lp2941
I8
aI1
aI55
aa(lp2942
I1
aI60
aI31
aa(lp2943
I1
aI60
aI15
aa(lp2944
I1
aI9
aI42
aI77
aI28
aI62
aa(lp2945
I1
aI60
aI62
aI63
aa(lp2946
I1
aI3
aI8
aI41
aI13
aI27
aI31
aa(lp2947
I1
aI35
aI36
aa(lp2948
I33
aI31
aI28
aI62
aI15
aa(lp2949
I32
aI1
aI21
aa(lp2950
I1
aI60
aI47
aa(lp2951
I1
aI42
aI37
aa(lp2952
I1
aI18
aI19
aI20
aa(lp2953
I72
aI1
aI84
aI73
aa(lp2954
I1
aI31
aI84
aI7
aa(lp2955
I1
aI82
aI44
aa(lp2956
I8
aI1
aI27
aa(lp2957
I65
aI84
aI86
aa(lp2958
I50
aI59
aa(lp2959
I65
aI27
aI28
aI31
aa(lp2960
I1
aI2
aI3
aI4
aI21
aa(lp2961
I72
aI17
aI74
aI76
aa(lp2962
I64
aI1
aI85
aI62
aa(lp2963
I32
aI1
aI47
aa(lp2964
I64
aI85
aI86
aI62
aI63
aa(lp2965
I32
aI1
aI3
aI6
aa(lp2966
I8
aI1
aI4
aa(lp2967
I17
aI73
aI1
aa(lp2968
I1
aI2
aI33
aI7
aI44
aI53
aI62
aI63
aa(lp2969
I72
aI75
aI62
aI63
aa(lp2970
I65
aI44
aI62
aa(lp2971
I32
aI1
aI67
aI44
aI77
aI46
aI82
aI51
aI85
aI87
aa(lp2972
I56
aI67
aI52
aI53
aI55
aa(lp2973
I1
aI67
aI61
aI62
aI47
aa(lp2974
I40
aI1
aI15
aI39
aa(lp2975
I17
aI67
aI62
aa(lp2976
I57
aI50
aI67
aI51
aI47
aa(lp2977
I8
aI1
aI3
aI4
aa(lp2978
I1
aI67
aI47
aI48
aI50
aI51
aI54
aa(lp2979
I1
aI67
aI44
aI77
aI47
aI50
aI86
aa(lp2980
I40
aI1
aI39
aa(lp2981
I16
aI17
aI18
aI1
aI9
aa(lp2982
I72
aI73
aI76
aI47
aI17
aI84
aI88
aa(lp2983
I50
aI67
aI54
aI47
aa(lp2984
I27
aI1
aI35
aI36
aa(lp2985
I72
aI76
aI74
aI44
aa(lp2986
I82
aI78
aI79
aa(lp2987
I8
aI1
aI5
aa(lp2988
I3
aI13
aI6
aa(lp2989
I67
aI17
aI44
aI82
aI79
aI49
aI50
aI51
aI85
aI86
aI47
aa(lp2990
I1
aI3
aI13
aI14
aa(lp2991
I72
aI1
aI62
aI73
aa(lp2992
I8
aI6
aa(lp2993
I67
aI50
aI51
aI52
aI47
aa(lp2994
I72
aI74
aI76
aI77
aI47
aa(lp2995
I8
aI1
aI38
aa(lp2996
I18
aI37
aI63
aa(lp2997
I84
aI1
aI18
aI44
aI65
aa(lp2998
I84
aI65
aI28
aI62
aI70
aa(lp2999
I88
aI8
aI3
aI9
aa(lp3000
I73
aI74
aI75
aI84
aI77
aa(lp3001
I1
aI10
aI3
aI41
aa(lp3002
I3
aI46
aI67
aI86
aI62
aI63
aa(lp3003
I1
aI10
aI3
aI41
aa(lp3004
I1
aI3
aI6
aI7
aI10
aI77
aI31
aa(lp3005
I62
aI46
aa(lp3006
I56
aI1
aI52
aI57
aI55
aa(lp3007
I1
aI67
aI59
aI44
aI51
aa(lp3008
I72
aI17
aI84
aa(lp3009
I67
aI72
aI47
aI84
aI61
aI62
aI63
aa(lp3010
I8
aI1
aI2
aI3
aI33
aa(lp3011
I1
aI2
aI3
aI4
aI6
aI10
aa(lp3012
I8
aI5
aI6
aa(lp3013
I1
aI2
aI6
aI7
aI27
aI31
aa(lp3014
I27
aI1
aI10
aI3
aI8
aa(lp3015
I10
aI13
aa(lp3016
I49
aI44
aI78
aI79
aI81
aI51
aI84
aa(lp3017
I1
aI67
aI77
aI51
aI84
aI62
aa(lp3018
I16
aI20
aI21
aa(lp3019
I56
aI48
aI79
aI44
aI49
aa(lp3020
I18
aI84
aI63
aa(lp3021
I48
aI1
aI50
aa(lp3022
I1
aI3
aI4
aa(lp3023
I82
aI79
aI44
aI50
aI47
aa(lp3024
I1
aI28
aI4
aI31
aa(lp3025
I40
aI1
aI15
aI62
aI39
aa(lp3026
I48
aI67
aI59
aa(lp3027
I1
aI18
aI2
aI14
aI31
aa(lp3028
I1
aI67
aI72
aI75
aI84
aI62
aI63
aa(lp3029
I1
aI67
aI77
aI47
aI48
aI49
aI28
aa(lp3030
I27
aI1
aI10
aI3
aI41
aa(lp3031
I48
aI51
aI67
aI56
aa(lp3032
I1
aI38
aI15
aa(lp3033
I8
aI1
aI2
aI3
aI14
aa(lp3034
I1
aI67
aI44
aI47
aI50
aI51
aI31
aa(lp3035
I1
aI27
aI33
aI7
aa(lp3036
I28
aI44
aI1
aa(lp3037
I67
aI47
aI48
aI49
aI50
aI59
aa(lp3038
I57
aI87
aI52
aI53
aI55
aa(lp3039
I17
aI1
aa(lp3040
I17
aI51
aI15
aa(lp3041
I1
aI67
aI47
aI50
aI51
aI54
aI56
aI62
aa(lp3042
I1
aI79
aI51
aI62
aI47
aa(lp3043
I8
aI1
aI42
aa(lp3044
I72
aI1
aI75
aa(lp3045
I64
aI1
aI67
aI44
aI84
aI85
aI87
aI62
aI31
aa(lp3046
I8
aI1
aI3
aa(lp3047
I8
aI1
aI10
aI3
aa(lp3048
I67
aI44
aI47
aI49
aI50
aI51
aI79
aa(lp3049
I48
aI49
aI50
aI44
aa(lp3050
I1
aI18
aI34
aI15
aa(lp3051
I47
aI81
aI51
aI84
aI86
aI63
aa(lp3052
I8
aI1
aI3
aI4
aI77
aa(lp3053
I73
aI75
aI47
aI1
aa(lp3054
I11
aI10
aI3
aa(lp3055
I1
aI2
aI4
aa(lp3056
I67
aI47
aI48
aI49
aI86
aI62
aa(lp3057
I1
aI6
aI33
aI8
aI85
aI27
aI31
aa(lp3058
I65
aI72
aI75
aI84
aI85
aI62
aI63
aa(lp3059
I1
aI2
aI3
aI8
aI10
aI27
aa(lp3060
I72
aI73
aI1
aI47
aa(lp3061
I1
aI67
aI44
aI47
aI48
aI49
aa(lp3062
I88
aI65
aa(lp3063
I48
aI49
aI59
aa(lp3064
I32
aI1
aI46
aa(lp3065
I32
aI1
aI31
aa(lp3066
I56
aI57
aI50
aI51
aI67
aa(lp3067
I27
aI1
aI35
aa(lp3068
I8
aI1
aI10
aI3
aa(lp3069
I73
aI67
aI76
aI62
aI46
aa(lp3070
I8
aI1
aI2
aI3
aI4
aa(lp3071
I1
aI50
aI59
aI57
aI49
aa(lp3072
I8
aI1
aI5
aI62
aa(lp3073
I73
aI74
aI84
aI62
aa(lp3074
I1
aI38
aI44
aI46
aI47
aI51
aI85
aI86
aI53
aa(lp3075
I8
aI1
aI3
aI5
aa(lp3076
I65
aI47
aI84
aI85
aI1
aa(lp3077
I44
aI50
aI79
aI81
aI82
aI51
aI86
aI47
aa(lp3078
I1
aI43
aI37
aI62
aI85
aa(lp3079
I1
aI35
aI36
aa(lp3080
I1
aI33
aI73
aa(lp3081
I1
aI72
aI75
aI44
aI47
aI84
aI85
aI27
aa(lp3082
I64
aI44
aI82
aI51
aI53
aI86
aa(lp3083
I72
aI62
aI63
aa(lp3084
I8
aI1
aa(lp3085
I16
aI2
aI4
aa(lp3086
I1
aI3
aI72
aI47
aI50
aI67
aI84
aI63
aa(lp3087
I11
aI1
aI10
aI3
aI13
aa(lp3088
I17
aI62
aI63
aa(lp3089
I72
aI73
aI74
aI62
aa(lp3090
I18
aI3
aI62
aa(lp3091
I10
aI3
aI4
aa(lp3092
I48
aI49
aI59
aI79
aa(lp3093
I1
aI67
aI44
aI47
aI54
aI59
aI62
aa(lp3094
I48
aI49
aI67
aI46
aI59
aa(lp3095
I67
aI52
aI54
aI47
aa(lp3096
I18
aI34
aI37
aI62
aa(lp3097
I8
aI3
aI4
aa(lp3098
I1
aI86
aI47
aa(lp3099
I64
aI1
aI67
aI44
aI46
aI48
aI62
aa(lp3100
I1
aI90
aI65
aa(lp3101
I15
aI1
aI3
aI39
aa(lp3102
I10
aI3
aa(lp3103
I1
aI28
aI62
aI31
aa(lp3104
I1
aI4
aI31
aa(lp3105
I48
aI1
aI59
aI47
aI49
aa(lp3106
I56
aI57
aI67
aI55
aa(lp3107
I1
aI19
aa(lp3108
I49
aI53
aa(lp3109
I1
aI44
aI53
aI62
aI52
aa(lp3110
I1
aI43
aI37
aa(lp3111
I67
aI51
aI54
aa(lp3112
I3
aI6
aa(lp3113
I72
aI17
aI85
aI1
aa(lp3114
I64
aI1
aI67
aI47
aI59
aI27
aa(lp3115
I90
aI44
aI85
aI47
aa(lp3116
I67
aI59
aI44
aI47
aa(lp3117
I1
aI4
aa(lp3118
I56
aI57
aI50
aI51
aa(lp3119
I57
aI51
aa(lp3120
I1
aI3
aI13
aI41
aa(lp3121
I8
aI1
aa(lp3122
I72
aI74
aI76
aa(lp3123
I1
aI27
aI38
aI15
aa(lp3124
I67
aI46
aI54
aa(lp3125
I52
aI53
aI55
aa(lp3126
I1
aI67
aI47
aI85
aI60
aI62
aa(lp3127
I18
aI47
aa(lp3128
I64
aI67
aI86
aI62
aa(lp3129
I1
aI38
aa(lp3130
I24
aI1
aa(lp3131
I1
aI59
aa(lp3132
I1
aI67
aI51
aI61
aI46
aa(lp3133
I72
aI1
aI6
aI62
aa(lp3134
I51
aI61
aa(lp3135
I64
aI17
aI15
aa(lp3136
I8
aI1
aI6
aI31
aa(lp3137
I1
aI3
aI47
aI13
aI15
aI48
aI49
aI59
aa(lp3138
I1
aI27
aI44
aI77
aI31
aa(lp3139
I11
aI6
aa(lp3140
I67
aI61
aa(lp3141
I81
aI70
aa(lp3142
I1
aI72
aI73
aI74
aI76
aI44
aI62
aI31
aa(lp3143
I88
aI1
aa(lp3144
I9
aI52
aI1
aa(lp3145
I1
aI84
aI77
aI62
aI47
aa(lp3146
I9
aI1
aa(lp3147
I64
aI65
aa(lp3148
I8
aa(lp3149
I1
aI34
aa(lp3150
I1
aI2
aI85
aI31
aa(lp3151
I57
aI51
aI52
aa(lp3152
I47
aI63
aa(lp3153
I65
aI63
aa(lp3154
I1
aI2
aI3
aI10
aI31
aa(lp3155
I1
aI42
aa(lp3156
I1
aI67
aI72
aI47
aI85
aI62
aI63
aa(lp3157
I1
aI3
aI6
aa(lp3158
I47
aI84
aI15
aa(lp3159
I11
aI3
aI13
aa(lp3160
I8
aI1
aI5
aI6
aa(lp3161
I64
aI1
aI72
aI73
aI77
aI46
aI54
aI62
aa(lp3162
I8
aI1
aI10
aI27
aa(lp3163
I81
aI78
aI79
aa(lp3164
I67
aI72
aI44
aI51
aI84
aI62
aI63
aa(lp3165
I72
aI17
aI62
aI63
aa(lp3166
I50
aI59
aI84
aI77
aa(lp3167
I1
aI3
aI8
aI19
aI24
aI62
aa(lp3168
I1
aI59
aI51
aI79
aa(lp3169
I1
aI65
aI33
aI72
aI76
aI18
aI84
aI62
aa(lp3170
I49
aI44
aI47
aI48
aI81
aI50
aI51
aI90
aa(lp3171
I1
aI81
aI44
aI78
aI47
aI49
aI51
aI79
aI62
aa(lp3172
I1
aI19
aI20
aI52
aa(lp3173
I64
aI67
aI75
aI47
aI84
aI86
aI62
aI63
aa(lp3174
I1
aI65
aI72
aI75
aI44
aI47
aI63
aa(lp3175
I17
aI27
aI62
aa(lp3176
I32
aI1
aI67
aI62
aa(lp3177
I1
aI77
aI62
aa(lp3178
I65
aI1
aI62
aI63
aa(lp3179
I1
aI10
aI19
aa(lp3180
I51
aI53
aI55
aa(lp3181
I48
aI58
aI67
aa(lp3182
I1
aI3
aI13
aa(lp3183
I33
aI5
aI1
aI8
aI44
aI27
aI31
aa(lp3184
I1
aI10
aI3
aa(lp3185
I1
aI10
aI3
aI6
aa(lp3186
I72
aI65
aI84
aI62
aI73
aa(lp3187
I1
aI67
aI59
aa(lp3188
I72
aI16
aI82
aI27
aI28
aI62
aa(lp3189
I1
aI37
aI22
aa(lp3190
I1
aI34
aI65
aI44
aI84
aI28
aI62
aI63
aa(lp3191
I1
aI51
aI33
aI31
aa(lp3192
I50
aI51
aI79
aa(lp3193
I1
aI67
aI59
aa(lp3194
I1
aI67
aI28
aI61
aI5
aa(lp3195
I1
aI81
aI44
aI47
aI49
aI82
aI51
aI84
aI53
aI86
aI52
aa(lp3196
I84
aI74
aI75
aI76
aI63
aa(lp3197
I67
aI54
aI55
aa(lp3198
I49
aI67
aI53
aI51
aa(lp3199
I1
aI3
aI20
aI13
aa(lp3200
I10
aI3
aI13
aa(lp3201
I16
aI1
aI42
aI38
aa(lp3202
I67
aI59
aI44
aa(lp3203
I1
aI67
aI44
aI77
aI46
aI47
aI54
aI62
aa(lp3204
I48
aI51
aI67
aI54
aI56
aa(lp3205
I86
aI85
aI62
aa(lp3206
I1
aI44
aI79
aI50
aI51
aI47
aa(lp3207
I1
aI27
aI20
aa(lp3208
I3
aI1
aI67
aI35
aI15
aa(lp3209
I1
aI27
aI35
aa(lp3210
I65
aI27
aI84
aI33
aI73
aa(lp3211
I72
aI73
aI74
aI76
aI77
aI47
aI62
aa(lp3212
I1
aI4
aI31
aa(lp3213
I1
aI72
aI75
aI44
aI77
aI47
aI63
aa(lp3214
I64
aI67
aI51
aI84
aI86
aI62
aI63
aa(lp3215
I1
aI3
aI10
aI44
aI15
aI27
aa(lp3216
I8
aI1
aI3
aa(lp3217
I1
aI4
aI31
aa(lp3218
I44
aI46
aI47
aI49
aI51
aI61
aa(lp3219
I72
aI73
aI74
aI76
aI47
aI88
aa(lp3220
I17
aI2
aI62
aa(lp3221
I18
aI67
aI84
aI62
aI47
aa(lp3222
I3
aI13
aI7
aa(lp3223
I8
aI1
aI3
aI5
aa(lp3224
I1
aI2
aI3
aI4
aI6
aI33
aI8
aI10
aI85
aI31
aa(lp3225
I1
aI82
aI47
aa(lp3226
I67
aI72
aI75
aI77
aI86
aI62
aI63
aa(lp3227
I72
aI65
aI62
aI33
aa(lp3228
I64
aI17
aI84
aI1
aI63
aa(lp3229
I72
aI1
aI75
aI62
aa(lp3230
I72
aI84
aI85
aI62
aa(lp3231
I16
aI21
aa(lp3232
I1
aI81
aI79
aI49
aI59
aI62
aa(lp3233
I81
aI82
aI78
aI79
aa(lp3234
I73
aI67
aI84
aI62
aI47
aa(lp3235
I1
aI67
aI73
aI84
aI85
aI62
aa(lp3236
I1
aI43
aI62
aa(lp3237
I1
aI43
aI44
aI37
aa(lp3238
I51
aI60
aI47
aa(lp3239
I64
aI67
aI73
aI44
aI15
aI27
aa(lp3240
I1
aI42
aI27
aa(lp3241
I88
aI65
aI18
aI64
aa(lp3242
I64
aI1
aI3
aI4
aI13
aI77
aI18
aI27
aI62
aa(lp3243
I72
aI73
aI74
aa(lp3244
I17
aI11
aI44
aI13
aI1
aa(lp3245
I72
aI85
aI62
aa(lp3246
I72
aI17
aI74
aI76
aI73
aa(lp3247
I32
aI1
aI77
aI15
aI84
aI31
aa(lp3248
I1
aI67
aI59
aI47
aa(lp3249
I1
aI67
aI48
aI51
aI61
aI62
aa(lp3250
I27
aI1
aI35
aa(lp3251
I67
aI44
aI61
aa(lp3252
I1
aI7
aI42
aI77
aI27
aI31
aa(lp3253
I40
aI1
aI39
aa(lp3254
I64
aI1
aI60
aI44
aI47
aa(lp3255
I1
aI67
aI77
aI62
aa(lp3256
I1
aI60
aI81
aI47
aa(lp3257
I1
aI43
aI37
aI62
aI85
aa(lp3258
I1
aI28
aI85
aa(lp3259
I50
aI51
aI54
aI87
aa(lp3260
I64
aI1
aI67
aI44
aI46
aI51
aI85
aI62
aa(lp3261
I64
aI17
aI2
aI3
aa(lp3262
I1
aI20
aI21
aa(lp3263
I9
aI2
aI27
aI1
aa(lp3264
I1
aI10
aI3
aI4
aa(lp3265
I33
aI67
aI27
aa(lp3266
I1
aI59
aI44
aI54
aa(lp3267
I57
aI58
aI51
aI54
aa(lp3268
I1
aI67
aI52
aI53
aI55
aI27
aI28
aI62
aI31
aa(lp3269
I8
aI20
aI21
aa(lp3270
I65
aI73
aI75
aI15
aI84
aI63
aa(lp3271
I8
aI9
aI3
aI5
aI1
aa(lp3272
I44
aI58
aI67
aI84
aI54
aa(lp3273
I56
aI51
aI61
aa(lp3274
I40
aI1
aI39
aa(lp3275
I67
aI86
aI62
aa(lp3276
I1
aI10
aI3
aa(lp3277
I64
aI67
aI44
aI46
aI51
aI86
aI62
aa(lp3278
I1
aI67
aI59
aa(lp3279
I1
aI67
aI9
aI47
aI48
aI49
aI51
aI62
aa(lp3280
I8
aI20
aI6
aa(lp3281
I81
aI44
aI86
aI70
aa(lp3282
I3
aI19
aI21
aa(lp3283
I1
aI77
aI9
aa(lp3284
I27
aI1
aI35
aa(lp3285
I3
aI13
aI6
aI7
aa(lp3286
I85
aI7
aa(lp3287
I50
aI67
aI47
aa(lp3288
I1
aI67
aI59
aI62
aI47
aa(lp3289
I1
aI72
aI44
aI50
aI51
aI84
aa(lp3290
I1
aI67
aI33
aI16
aI28
aI62
aa(lp3291
I1
aI60
aI61
aI47
aa(lp3292
I18
aI63
aa(lp3293
I64
aI1
aI2
aI21
aI9
aa(lp3294
I81
aI82
aI79
aa(lp3295
I64
aI17
aI62
aI1
aa(lp3296
I1
aI35
aI36
aa(lp3297
I72
aI76
aI84
aI62
aI63
aa(lp3298
I1
aI3
aI6
aI8
aI10
aI27
aa(lp3299
I48
aI49
aI51
aI61
aa(lp3300
I1
aI67
aI60
aa(lp3301
I37
aI72
aI76
aI74
aI44
aI77
aI17
aI51
aa(lp3302
I8
aI3
aI85
aa(lp3303
I18
aI63
aa(lp3304
I64
aI72
aI75
aI62
aI63
aa(lp3305
I49
aI50
aI67
aI54
aI47
aa(lp3306
I1
aI47
aI81
aa(lp3307
I16
aI9
aI15
aI1
aa(lp3308
I1
aI62
aI7
aa(lp3309
I1
aI31
aI5
aI33
aa(lp3310
I1
aI3
aI22
aa(lp3311
I64
aI2
aI67
aI47
aI84
aI85
aI86
aI62
aa(lp3312
I40
aI1
aI37
aI39
aa(lp3313
I1
aI43
aI37
aa(lp3314
I72
aI84
aI76
aI62
aI44
aa(lp3315
I1
aI19
aI31
aa(lp3316
I1
aI67
aI44
aI47
aI50
aI61
aI62
aa(lp3317
I1
aI59
aI79
aa(lp3318
I1
aI67
aI44
aI46
aI48
aI50
aI51
aI59
aa(lp3319
I56
aI57
aI67
aI51
aI79
aa(lp3320
I1
aI3
aI8
aI9
aI15
aI85
aa(lp3321
I73
aI62
aI63
aa(lp3322
I64
aI65
aI37
aI44
aI18
aI86
aI62
aa(lp3323
I1
aI18
aI62
aI31
aa(lp3324
I1
aI67
aI84
aI46
aI44
aa(lp3325
I72
aI2
aI84
aI85
aa(lp3326
I16
aI1
aI15
aI9
aa(lp3327
I1
aI67
aI44
aI46
aI85
aI86
aI62
aa(lp3328
I8
aI3
aI13
aa(lp3329
I67
aI52
aI54
aa(lp3330
I3
aI1
aI19
aI14
aa(lp3331
I84
aI1
aI76
aI62
aI72
aa(lp3332
I72
aI73
aI74
aI75
aI44
aI47
aI76
aI50
aI84
aa(lp3333
I8
aI3
aI14
aa(lp3334
I88
aI1
aI67
aI84
aI62
aa(lp3335
I32
aI1
aI67
aI44
aI46
aI47
aI51
aI31
aI62
aI63
aa(lp3336
I33
aI65
aI72
aI75
aI47
aI62
aa(lp3337
I1
aI27
aI62
aI6
aI15
aa(lp3338
I65
aI75
aI85
aa(lp3339
I40
aI1
aI44
aI39
aa(lp3340
I65
aI84
aI86
aa(lp3341
I8
aI10
aI3
aI6
aa(lp3342
I8
aI78
aa(lp3343
I48
aI49
aI76
aI54
aI47
aa(lp3344
I8
aI1
aI28
aI31
aa(lp3345
I88
aI1
aI63
aa(lp3346
I9
aI2
aI1
aa(lp3347
I1
aI4
aI6
aI89
aa(lp3348
I72
aI84
aI74
aI76
aI62
aa(lp3349
I1
aI18
aI27
aI20
aa(lp3350
I1
aI72
aI75
aI44
aI82
aI51
aI84
aI57
aI62
aI63
aa(lp3351
I67
aI44
aI46
aI47
aI81
aI51
aI62
aa(lp3352
I40
aI1
aI37
aI39
aa(lp3353
I1
aI3
aI28
aa(lp3354
I40
aI1
aI3
aI15
aI39
aa(lp3355
I1
aI31
aI25
aa(lp3356
I1
aI2
aI54
aa(lp3357
I1
aI67
aI44
aI47
aI51
aI52
aI55
aI27
aI62
aa(lp3358
I1
aI67
aI47
aI84
aI59
aI63
aa(lp3359
I67
aI78
aI47
aI81
aI82
aI79
aI62
aa(lp3360
I40
aI1
aI39
aI62
aI15
aa(lp3361
I27
aI1
aI35
aa(lp3362
I67
aI59
aI46
aa(lp3363
I1
aI27
aI36
aa(lp3364
I1
aI67
aI84
aI61
aI49
aa(lp3365
I1
aI44
aI23
aa(lp3366
I56
aI57
aI67
aI51
aI44
aa(lp3367
I8
aI10
aI3
aa(lp3368
I9
aI41
aI1
aa(lp3369
I1
aI67
aI18
aI53
aI27
aI28
aI62
aI31
aa(lp3370
I67
aI57
aI50
aI51
aa(lp3371
I48
aI49
aI59
aI46
aI47
aa(lp3372
I32
aI1
aI44
aI79
aI51
aI47
aa(lp3373
I1
aI3
aI8
aI44
aI77
aI27
aI31
aa(lp3374
I48
aI51
aI54
aa(lp3375
I8
aI1
aI10
aI3
aa(lp3376
I3
aI13
aa(lp3377
I1
aI36
aa(lp3378
I8
aI10
aI3
aI4
aa(lp3379
I32
aI1
aI3
aI6
aa(lp3380
I65
aI70
aI1
aI73
aI44
aI81
aI27
aa(lp3381
I48
aI61
aa(lp3382
I73
aI74
aI77
aa(lp3383
I56
aI51
aa(lp3384
I48
aI54
aa(lp3385
I81
aI70
aa(lp3386
I1
aI2
aI3
aI4
aI57
aa(lp3387
I1
aI58
aI67
aI54
aa(lp3388
I8
aI3
aI5
aI6
aa(lp3389
I1
aI4
aa(lp3390
I8
aI1
aI3
aI4
aa(lp3391
I1
aI90
aI63
aa(lp3392
I1
aI2
aI3
aI41
aa(lp3393
I81
aI79
aa(lp3394
I84
aI85
aI77
aa(lp3395
I1
aI18
aI19
aI20
aI13
aa(lp3396
I1
aI31
aI15
aa(lp3397
I40
aI1
aI37
aI62
aI39
aa(lp3398
I67
aI51
aI86
aI62
aI47
aa(lp3399
I72
aI73
aI74
aI77
aI65
aa(lp3400
I28
aI2
aI4
aI1
aa(lp3401
I1
aI18
aI62
aa(lp3402
I84
aI28
aa(lp3403
I1
aI9
aa(lp3404
I3
aI1
aI19
aI6
aI31
aa(lp3405
I17
aI84
aI85
aI65
aa(lp3406
I64
aI72
aI44
aI84
aI62
aI63
aa(lp3407
I49
aI50
aI67
aI54
aI47
aa(lp3408
I1
aI3
aI15
aI18
aI85
aI31
aa(lp3409
I1
aI38
aa(lp3410
I64
aI11
aI3
aI85
aI1
aa(lp3411
I72
aI74
aI76
aa(lp3412
I1
aI67
aI47
aI50
aI51
aI54
aI15
aa(lp3413
I32
aI1
aI67
aI64
aI47
aI48
aI49
aI50
aI51
aI62
aa(lp3414
I48
aI50
aI67
aI54
aI47
aa(lp3415
I72
aI1
aI73
aa(lp3416
I1
aI37
aI39
aa(lp3417
I17
aI15
aa(lp3418
I1
aI60
aa(lp3419
I64
aI2
aI62
aI15
aa(lp3420
I32
aI1
aI67
aI73
aI62
aI31
aa(lp3421
I1
aI67
aI44
aI46
aI47
aI81
aI82
aI51
aI78
aI79
aI62
aa(lp3422
I1
aI74
aI77
aI47
aa(lp3423
I8
aI1
aI3
aI13
aa(lp3424
I1
aI67
aI44
aI47
aI49
aI59
aI62
aI31
aa(lp3425
I58
aI67
aI62
aI47
aa(lp3426
I1
aI10
aI6
aa(lp3427
I49
aI50
aI67
aI61
aI1
aa(lp3428
I1
aI43
aI37
aa(lp3429
I17
aI63
aI65
aa(lp3430
I1
aI43
aI37
aI62
aa(lp3431
I32
aI1
aI31
aa(lp3432
I51
aI58
aI67
aI62
aI54
aa(lp3433
I40
aI1
aI39
aa(lp3434
I17
aI82
aI63
aa(lp3435
I1
aI47
aI84
aI88
aI28
aI62
aa(lp3436
I40
aI1
aI39
aI15
aa(lp3437
I1
aI4
aI77
aa(lp3438
I67
aI47
aI48
aI49
aI50
aI51
aI54
aI62
aa(lp3439
I1
aI2
aI67
aI47
aI28
aI62
aa(lp3440
I1
aI2
aI3
aI6
aI8
aI15
aI85
aa(lp3441
I1
aI82
aI81
aI78
aI79
aa(lp3442
I1
aI67
aI47
aI82
aI79
aI62
aa(lp3443
I81
aI44
aI70
aa(lp3444
I56
aI49
aI67
aI61
aI47
aa(lp3445
I1
aI75
aI84
aa(lp3446
I72
aI74
aI76
aa(lp3447
I1
aI75
aI44
aa(lp3448
I1
aI3
aI9
aa(lp3449
I8
aI1
aI5
aa(lp3450
I76
aI65
aI1
aI73
aa(lp3451
I1
aI70
aI73
aI81
aI87
aI62
aa(lp3452
I82
aI67
aI84
aI77
aI62
aa(lp3453
I81
aI44
aI47
aa(lp3454
I64
aI18
aI4
aI2
aa(lp3455
I3
aI1
aI19
aI8
aa(lp3456
I72
aI74
aI76
aI86
aI62
aa(lp3457
I1
aI3
aI38
aI8
aI15
aI62
aa(lp3458
I1
aI67
aI72
aI44
aI47
aI62
aa(lp3459
I72
aI65
aI62
aI81
aa(lp3460
I48
aI49
aI67
aI54
aI47
aa(lp3461
I8
aI1
aI21
aa(lp3462
I1
aI28
aI31
aa(lp3463
I81
aI62
aI70
aa(lp3464
I84
aI74
aI76
aI62
aI47
aa(lp3465
I1
aI63
aI44
aI51
aI57
aa(lp3466
I1
aI54
aa(lp3467
I1
aI44
aI15
aI84
aI23
aI88
aI62
aI31
aa(lp3468
I64
aI1
aI44
aI82
aI79
aI81
aI50
aI51
aa(lp3469
I27
aI1
aI35
aa(lp3470
I65
aI67
aI62
aa(lp3471
I81
aI86
aI47
aa(lp3472
I40
aI1
aI37
aI39
aa(lp3473
I1
aI3
aI6
aa(lp3474
I1
aI67
aI60
aI85
aa(lp3475
I76
aI17
aI84
aI65
aI73
aa(lp3476
I1
aI3
aI85
aI6
aa(lp3477
I88
aI17
aI27
aa(lp3478
I25
aI31
aI1
aa(lp3479
I1
aI18
aI34
aa(lp3480
I1
aI67
aI9
aI44
aI15
aI28
aI62
aa(lp3481
I65
aI18
aI85
aI86
aa(lp3482
I1
aI52
aI53
aa(lp3483
I82
aI44
aI77
aI46
aI79
aa(lp3484
I72
aI74
aI76
aa(lp3485
I1
aI58
aI60
aI85
aa(lp3486
I58
aI67
aI61
aa(lp3487
I1
aI38
aI15
aa(lp3488
I1
aI67
aI59
aI37
aI62
aa(lp3489
I65
aI62
aa(lp3490
I1
aI74
aI76
aI62
aI73
aa(lp3491
I1
aI67
aI73
aI44
aI46
aI47
aI48
aI49
aI52
aI59
aa(lp3492
I27
aI1
aI35
aa(lp3493
I72
aI17
aI84
aI62
aa(lp3494
I1
aI3
aI4
aa(lp3495
I1
aI35
aI36
aa(lp3496
I27
aI1
aI35
aa(lp3497
I1
aI4
aI31
aa(lp3498
I8
aI3
aI14
aa(lp3499
I1
aI27
aI28
aI62
aI31
aa(lp3500
I1
aI20
aI31
aa(lp3501
I59
aI51
aI1
aa(lp3502
I51
aI44
aI47
aa(lp3503
I40
aI1
aI37
aa(lp3504
I72
aI17
aI76
aI73
aa(lp3505
I27
aI1
aI35
aI36
aa(lp3506
I1
aI34
aI38
aI15
aa(lp3507
I1
aI35
aI36
aa(lp3508
I17
aI74
aI73
aa(lp3509
I9
aI3
aI1
aa(lp3510
I81
aI44
aI70
aI1
aa(lp3511
I64
aI1
aI67
aI62
aI32
aa(lp3512
I1
aI35
aI36
aa(lp3513
I1
aI2
aI3
aI38
aa(lp3514
I78
aI79
aI81
aI82
aI51
aI84
aI53
aI86
aa(lp3515
I1
aI3
aI6
aa(lp3516
I1
aI18
aI42
aa(lp3517
I64
aI67
aI47
aI51
aI86
aI62
aI63
aa(lp3518
I48
aI73
aI50
aI51
aI47
aa(lp3519
I1
aI79
aI47
aa(lp3520
I1
aI50
aI51
aI44
aI47
aa(lp3521
I1
aI43
aI37
aI62
aa(lp3522
I1
aI35
aI36
aa(lp3523
I27
aI1
aI51
aI44
aI49
aa(lp3524
I72
aI1
aI73
aI63
aa(lp3525
I1
aI67
aI73
aI75
aI47
aI84
aI62
aa(lp3526
I27
aI1
aI35
aI36
aa(lp3527
I1
aI2
aI3
aI10
aI6
aa(lp3528
I72
aI1
aI75
aI77
aa(lp3529
I1
aI37
aI39
aa(lp3530
I1
aI3
aI4
aI6
aI28
aa(lp3531
I1
aI2
aI6
aI8
aI59
aI31
aa(lp3532
I16
aI3
aI85
aa(lp3533
I1
aI2
aI33
aI31
aa(lp3534
I64
aI1
aI72
aI84
aI85
aI88
aa(lp3535
I64
aI74
aI75
aI47
aI84
aI86
aI62
aI63
aa(lp3536
I8
aI1
aI22
aa(lp3537
I41
aI27
aI1
aI31
aa(lp3538
I1
aI3
aI15
aI51
aI47
aI60
aI31
aa(lp3539
I73
aI74
aI84
aa(lp3540
I3
aI1
aI19
aa(lp3541
I1
aI42
aI38
aa(lp3542
I32
aI1
aI3
aI6
aI31
aa(lp3543
I88
aI76
aa(lp3544
I1
aI58
aa(lp3545
I8
aI64
aI2
aI3
aI85
aa(lp3546
I73
aI62
aI1
aa(lp3547
I16
aI1
aI15
aa(lp3548
I40
aI1
aI15
aI62
aI39
aa(lp3549
I65
aI75
aI44
aI47
aI1
aa(lp3550
I17
aI47
aI1
aa(lp3551
I11
aI3
aI13
aa(lp3552
I44
aI79
aI80
aI81
aI50
aI51
aI47
aa(lp3553
I1
aI3
aI41
aa(lp3554
I1
aI67
aI62
aI22
aI15
aa(lp3555
I8
aI1
aI34
aI3
aa(lp3556
I31
aI84
aI86
aI62
aI63
aa(lp3557
I32
aI1
aI67
aI44
aI62
aa(lp3558
I1
aI27
aI85
aI31
aa(lp3559
I72
aI1
aI75
aI31
aa(lp3560
I1
aI50
aI52
aI79
aa(lp3561
I67
aI50
aI47
aI81
aI82
aI51
aI52
aI62
aa(lp3562
I1
aI3
aI35
aI15
aa(lp3563
I10
aI3
aI85
aa(lp3564
I64
aI1
aI75
aI46
aI62
aa(lp3565
I65
aI72
aI44
aI74
aI76
aI47
aI84
aI85
aI28
aI62
aI63
aa(lp3566
I73
aI74
aI85
aI86
aI62
aI63
aa(lp3567
I15
aI1
aI27
aI39
aa(lp3568
I58
aI67
aI60
aI61
aI62
aa(lp3569
I1
aI67
aI44
aI46
aI28
aI62
aa(lp3570
I1
aI42
aI27
aI38
aI31
aa(lp3571
I1
aI75
aI44
aI46
aI47
aI84
aI63
aa(lp3572
I8
aI3
aI6
aa(lp3573
I17
aI44
aI81
aa(lp3574
I1
aI44
aI86
aI89
aa(lp3575
I19
aI20
aI61
aI21
aa(lp3576
I1
aI27
aI77
aa(lp3577
I56
aI1
aI51
aI57
aa(lp3578
I32
aI1
aI44
aI46
aI47
aI51
aI31
aa(lp3579
I11
aI1
aI3
aI13
aa(lp3580
I1
aI42
aI3
aa(lp3581
I31
aI1
aI3
aI25
aa(lp3582
I1
aI59
aI62
aI47
aa(lp3583
I33
aI84
aI62
aI47
aa(lp3584
I1
aI35
aI36
aa(lp3585
I1
aI75
aI84
aI62
aI63
aa(lp3586
I8
aI1
aI2
aI28
aa(lp3587
I1
aI38
aI31
aa(lp3588
I65
aI70
aI81
aa(lp3589
I1
aI10
aI3
aI6
aa(lp3590
I1
aI53
aI22
aI31
aa(lp3591
I2
aI7
aa(lp3592
I59
aI78
aI46
aI79
aa(lp3593
I1
aI50
aI59
aI54
aI81
aa(lp3594
I64
aI67
aI72
aI44
aI78
aI79
aI51
aI86
aI62
aa(lp3595
I48
aI57
aI67
aI51
aI54
aa(lp3596
I1
aI35
aI15
aa(lp3597
I67
aI46
aI48
aI50
aI51
aI58
aa(lp3598
I8
aI1
aI2
aI3
aa(lp3599
I64
aI1
aI77
aI63
aa(lp3600
I1
aI53
aI49
aa(lp3601
I8
aI2
aI3
aI13
aa(lp3602
I48
aI67
aI58
aI51
aI47
aa(lp3603
I72
aI1
aI44
aI65
aa(lp3604
I81
aI44
aI70
aa(lp3605
I1
aI79
aI82
aI87
aI61
aI62
aa(lp3606
I16
aI1
aI59
aI44
aa(lp3607
I1
aI28
aI38
aI62
aI15
aa(lp3608
I40
aI1
aI39
aI62
aI15
aa(lp3609
I1
aI27
aI15
aa(lp3610
I1
aI84
aI88
aI90
aI62
aI63
aa(lp3611
I1
aI67
aI62
aI59
aa(lp3612
I1
aI44
aI73
aI63
aa(lp3613
I9
aI62
aI15
aa(lp3614
I1
aI51
aI9
aa(lp3615
I1
aI74
aI76
aI18
aa(lp3616
I41
aI2
aI27
aI1
aa(lp3617
I1
aI3
aI4
aI6
aa(lp3618
I49
aI67
aI57
aa(lp3619
I1
aI19
aI62
aa(lp3620
I72
aI73
aI74
aI84
aa(lp3621
I56
aI57
aI67
aa(lp3622
I72
aI74
aI75
aI76
aI77
aI87
aI62
aa(lp3623
I1
aI67
aI47
aI50
aI51
aI62
aI31
aa(lp3624
I1
aI2
aI6
aa(lp3625
I1
aI72
aI73
aI77
aI82
aI27
aI62
aI63
aa(lp3626
I8
aI3
aI13
aa(lp3627
I64
aI1
aI75
aI86
aI62
aI63
aa(lp3628
I16
aI9
aI1
aa(lp3629
I1
aI3
aI13
aa(lp3630
I1
aI3
aI37
aa(lp3631
I8
aI1
aI11
aa(lp3632
I31
aI44
aI15
aa(lp3633
I1
aI67
aI47
aI48
aI49
aI52
aI61
aa(lp3634
I1
aI77
aa(lp3635
I64
aI1
aI27
aI7
aa(lp3636
I11
aI3
aI85
aa(lp3637
I1
aI35
aI36
aI77
aI85
aI27
aa(lp3638
I15
aI7
aa(lp3639
I1
aI62
aa(lp3640
I1
aI67
aI47
aI48
aI49
aI59
aI62
aa(lp3641
I1
aI2
aI3
aI6
aI27
aI31
aa(lp3642
I1
aI18
aI85
aI73
aa(lp3643
I3
aI85
aI13
aa(lp3644
I1
aI85
aI15
aa(lp3645
I1
aI35
aa(lp3646
I1
aI18
aI20
aa(lp3647
I72
aI73
aI74
aI76
aI47
aa(lp3648
I1
aI78
aI79
aI51
aI47
aI28
aa(lp3649
I1
aI70
aa(lp3650
I1
aI21
aa(lp3651
I88
aI1
aI44
aI63
aa(lp3652
I1
aI44
aI79
aa(lp3653
I1
aI67
aI44
aI46
aI47
aI51
aI62
aa(lp3654
I8
aI20
aa(lp3655
I1
aI34
aa(lp3656
I64
aI51
aI62
aI86
aI63
aa(lp3657
I84
aI52
aa(lp3658
I9
aI44
aI62
aI1
aa(lp3659
I1
aI20
aI31
aa(lp3660
I1
aI3
aI28
aa(lp3661
I1
aI10
aI3
aI4
aa(lp3662
I3
aI85
aa(lp3663
I67
aI44
aI47
aI48
aI50
aI51
aI54
aI58
aa(lp3664
I67
aI28
aI62
aa(lp3665
I72
aI84
aI44
aI86
aI63
aa(lp3666
I81
aI82
aI44
aI79
aa(lp3667
I48
aI67
aI59
aI62
aa(lp3668
I67
aI87
aa(lp3669
I8
aI10
aI3
aa(lp3670
I1
aI2
aI3
aI8
aI9
aI27
aa(lp3671
I74
aI59
aI76
aa(lp3672
I72
aI75
aI67
aI84
aI63
aa(lp3673
I67
aI86
aa(lp3674
I1
aI67
aI4
aI47
aI21
aI62
aI31
aa(lp3675
I54
aa(lp3676
I81
aI85
aI70
aa(lp3677
I17
aI47
aI1
aI73
aa(lp3678
I44
aI47
aI50
aI51
aI56
aI57
aa(lp3679
I64
aI17
aI28
aa(lp3680
I1
aI10
aI3
aa(lp3681
I1
aI3
aI6
aI10
aI77
aI88
aI27
aI31
aa(lp3682
I1
aI38
aI62
aa(lp3683
I1
aI34
aI77
aI85
aa(lp3684
I8
aI1
aI3
aa(lp3685
I1
aI58
aI44
aa(lp3686
I27
aI1
aI35
aa(lp3687
I1
aI27
aI28
aa(lp3688
I32
aI1
aI67
aI44
aI47
aI62
aa(lp3689
I72
aI73
aI52
aI76
aI47
aa(lp3690
I56
aI57
aI44
aI1
aa(lp3691
I76
aI74
aI84
aa(lp3692
I27
aI1
aI15
aI28
aI31
aa(lp3693
I64
aI67
aI46
aI48
aI49
aI50
aI51
aI84
aI86
aI61
aI62
aa(lp3694
I1
aI67
aI46
aI49
aI51
aI54
aa(lp3695
I88
aI62
aa(lp3696
I8
aI1
aI3
aI6
aa(lp3697
I1
aI2
aI28
aa(lp3698
I32
aI1
aI67
aI47
aI54
aI62
aa(lp3699
I1
aI2
aI4
aa(lp3700
I40
aI1
aI39
aa(lp3701
I17
aI73
aI1
aa(lp3702
I1
aI15
aI7
aa(lp3703
I1
aI3
aI4
aa(lp3704
I72
aI74
aI76
aI77
aI85
aI87
aI62
aa(lp3705
I1
aI34
aI67
aI44
aI47
aI51
aI62
aa(lp3706
I1
aI3
aI7
aa(lp3707
I72
aI44
aI74
aI76
aI77
aI84
aa(lp3708
I1
aI3
aI38
aa(lp3709
I1
aI44
aI15
aI16
aI84
aI27
aI28
aa(lp3710
I1
aI77
aI62
aI63
aa(lp3711
I1
aI28
aI22
aa(lp3712
I3
aI11
aI13
aa(lp3713
I1
aI3
aI13
aa(lp3714
I72
aI1
aI32
aa(lp3715
I50
aI67
aI62
aI47
aa(lp3716
I56
aI57
aI54
aa(lp3717
I27
aI1
aI19
aa(lp3718
I1
aI67
aI73
aI74
aI77
aI47
aI62
aa(lp3719
I67
aI44
aI47
aI48
aI49
aI61
aa(lp3720
I40
aI1
aI37
aa(lp3721
I17
aI1
aI73
aI63
aa(lp3722
I72
aI75
aI84
aI63
aa(lp3723
I8
aI1
aI3
aa(lp3724
I64
aI86
aI63
aa(lp3725
I32
aI1
aI37
aI22
aa(lp3726
I1
aI44
aI46
aI73
aa(lp3727
I72
aI64
aI51
aI85
aI86
aa(lp3728
I1
aI18
aI9
aa(lp3729
I64
aI1
aI2
aI3
aa(lp3730
I48
aI57
aI67
aI51
aI53
aa(lp3731
I64
aI1
aI65
aI72
aI75
aI76
aI84
aI63
aa(lp3732
I73
aI44
aI47
aI82
aI51
aI63
aa(lp3733
I17
aI75
aI84
aa(lp3734
I67
aI73
aI44
aI79
aI81
aI82
aI51
aI62
aa(lp3735
I1
aI67
aI73
aI44
aI78
aI79
aI81
aI82
aI51
aI47
aI62
aI63
aa(lp3736
I73
aI74
aI62
aa(lp3737
I9
aI18
aI28
aI62
aa(lp3738
I16
aI1
aI47
aa(lp3739
I1
aI35
aI6
aa(lp3740
I1
aI75
aI62
aI63
aa(lp3741
I1
aI67
aI72
aI76
aI84
aI61
aI62
aa(lp3742
I1
aI18
aI42
aI9
aa(lp3743
I1
aI42
aI9
aa(lp3744
I8
aI1
aI3
aI14
aa(lp3745
I9
aI2
aI4
aa(lp3746
I1
aI3
aI6
aI33
aa(lp3747
I72
aI75
aI63
aa(lp3748
I52
aI53
aa(lp3749
I33
aI67
aI72
aI44
aI84
aI86
aa(lp3750
I1
aI31
aI7
aa(lp3751
I1
aI19
aI28
aa(lp3752
I88
aI1
aI77
aa(lp3753
I64
aI81
aI51
aI44
aa(lp3754
I64
aI72
aI75
aa(lp3755
I1
aI31
aI15
aa(lp3756
I67
aI54
aI47
aa(lp3757
I67
aI1
aI2
aI27
aI62
aa(lp3758
I1
aI35
aI36
aa(lp3759
I8
aI6
aa(lp3760
I8
aI9
aI3
aI1
aa(lp3761
I1
aI10
aI3
aI85
aa(lp3762
I16
aI1
aI27
aa(lp3763
I1
aI67
aI44
aI77
aI47
aI48
aI50
aI51
aI27
aI62
aa(lp3764
I48
aI57
aI67
aI56
aI47
aa(lp3765
I1
aI75
aI44
aI63
aa(lp3766
I1
aI27
aI22
aI31
aa(lp3767
I1
aI70
aI81
aa(lp3768
I1
aI43
aI62
aa(lp3769
I73
aI74
aI76
aI62
aa(lp3770
I67
aI73
aI77
aI47
aI51
aI84
aI86
aI55
aI62
aI31
aa(lp3771
I1
aI59
aI47
aa(lp3772
I1
aI2
aI43
aI37
aa(lp3773
I1
aI50
aI51
aI81
aI79
aa(lp3774
I56
aI57
aI49
aa(lp3775
I1
aI10
aI31
aI7
aa(lp3776
I48
aI51
aI67
aI54
aI47
aa(lp3777
I1
aI3
aI13
aI31
aa(lp3778
I1
aI67
aI75
aI18
aI31
aI62
aI63
aa(lp3779
I40
aI1
aI39
aa(lp3780
I64
aI88
aI86
aa(lp3781
I1
aI35
aI36
aa(lp3782
I1
aI44
aI78
aI79
aI81
aI82
aa(lp3783
I72
aI65
aI75
aI62
aI33
aa(lp3784
I84
aI86
aI62
aI63
aa(lp3785
I1
aI18
aI34
aa(lp3786
I1
aI2
aI3
aI4
aI6
aI31
aa(lp3787
I1
aI3
aI15
aa(lp3788
I8
aI3
aI6
aa(lp3789
I49
aI61
aa(lp3790
I67
aI47
aI48
aI49
aI51
aI54
aI55
aa(lp3791
I7
aI1
aI15
aI64
aI31
aa(lp3792
I1
aI42
aI27
aI47
aa(lp3793
I72
aI62
aI63
aa(lp3794
I1
aI43
aI37
aI62
aI77
aa(lp3795
I1
aI60
aI13
aI47
aa(lp3796
I1
aI67
aI72
aI47
aI27
aI84
aI59
aI62
aI31
aa(lp3797
I1
aI43
aI44
aI15
aI27
aI62
aa(lp3798
I64
aI17
aI51
aa(lp3799
I1
aI3
aI6
aI39
aI72
aI8
aa(lp3800
I1
aI4
aI77
aa(lp3801
I64
aI1
aI10
aI3
aI6
aa(lp3802
I3
aI1
aI19
aa(lp3803
I51
aI53
aI55
aa(lp3804
I72
aI75
aI47
aI51
aI84
aI53
aI86
aI63
aa(lp3805
I1
aI37
aI39
aa(lp3806
I1
aI34
aI3
aa(lp3807
I1
aI4
aI31
aa(lp3808
I64
aI72
aI44
aI18
aI51
aI86
aI62
aI63
aa(lp3809
I1
aI58
aI44
aI28
aa(lp3810
I1
aI59
aI44
aI46
aI47
aI81
aI82
aI51
aI84
aI85
aI79
aa(lp3811
I88
aI17
aI65
aa(lp3812
I1
aI2
aI3
aI10
aa(lp3813
I3
aI18
aI67
aI62
aI15
aa(lp3814
I82
aI78
aI47
aa(lp3815
I67
aI60
aI87
aa(lp3816
I8
aI1
aI5
aa(lp3817
I64
aI51
aI86
aa(lp3818
I17
aI75
aI65
aI73
aa(lp3819
I56
aI57
aI79
aa(lp3820
I17
aI63
aa(lp3821
I1
aI3
aI14
aa(lp3822
I44
aI85
aI62
aI79
aa(lp3823
I40
aI1
aI37
aI39
aa(lp3824
I67
aI44
aI78
aI62
aI79
aa(lp3825
I67
aI52
aI54
aa(lp3826
I56
aI50
aI67
aa(lp3827
I1
aI2
aI20
aa(lp3828
I64
aI1
aI72
aI75
aI62
aI31
aa(lp3829
I8
aI9
aI3
aI1
aa(lp3830
I1
aI3
aI73
aI15
aI18
aI67
aI27
aI62
aa(lp3831
I42
aI3
aa(lp3832
I40
aI1
aI62
aI39
aa(lp3833
I8
aI1
aI3
aI5
aI27
aa(lp3834
I3
aI76
aI62
aa(lp3835
I1
aI67
aI77
aI48
aI49
aI50
aI61
aI62
aa(lp3836
I67
aI44
aI62
aI79
aa(lp3837
I9
aI7
aI6
aI1
aa(lp3838
I67
aI59
aI47
aa(lp3839
I67
aI44
aI46
aI51
aI54
aI31
aa(lp3840
I1
aI58
aI54
aa(lp3841
I1
aI10
aI3
aI28
aI6
aa(lp3842
I1
aI67
aI47
aI49
aI50
aI59
aI62
aa(lp3843
I72
aI65
aI27
aI62
aa(lp3844
I1
aI2
aI3
aI8
aI15
aI27
aa(lp3845
I8
aI1
aI3
aa(lp3846
I17
aI75
aI62
aa(lp3847
I67
aI46
aI47
aI48
aI49
aI51
aI57
aI61
aa(lp3848
I1
aI3
aI4
aI7
aa(lp3849
I31
aI9
aI2
aI15
aI1
aa(lp3850
I1
aI67
aI73
aI44
aI77
aI85
aI62
aa(lp3851
I1
aI2
aI27
aa(lp3852
I1
aI67
aI44
aI46
aI79
aI81
aI50
aI51
aI52
aI78
aI62
aa(lp3853
I65
aI67
aI72
aI44
aI84
aI62
aa(lp3854
I72
aI76
aI75
aI44
aa(lp3855
I1
aI50
aI51
aI60
aI77
aa(lp3856
I50
aI51
aI44
aa(lp3857
I9
aI15
aI1
aa(lp3858
I48
aI49
aI59
aI51
aI47
aa(lp3859
I8
aI1
aI42
aI3
aa(lp3860
I1
aI51
aI62
aa(lp3861
I1
aI18
aI51
aI90
aa(lp3862
I27
aI1
aI35
aa(lp3863
I65
aI73
aI1
aa(lp3864
I1
aI2
aI10
aI6
aa(lp3865
I1
aI3
aI6
aI77
aI14
aI13
aI31
aa(lp3866
I1
aI67
aI44
aI77
aI47
aI58
aI62
aa(lp3867
I73
aI76
aI47
aa(lp3868
I1
aI67
aI73
aI77
aI79
aI47
aI62
aa(lp3869
I1
aI31
aI84
aI15
aa(lp3870
I73
aI67
aI17
aI62
aI47
aa(lp3871
I2
aI27
aI15
aa(lp3872
I59
aI62
aI54
aa(lp3873
I1
aI67
aI3
aI62
aI79
aa(lp3874
I1
aI3
aI38
aa(lp3875
I65
aI27
aI33
aa(lp3876
I1
aI2
aI3
aI6
aI31
aa(lp3877
I67
aI44
aI46
aI47
aI48
aI49
aI59
aa(lp3878
I48
aI49
aI67
aI54
aa(lp3879
I32
aI1
aI2
aI3
aI6
aI8
aI10
aI31
aa(lp3880
I1
aI75
aI63
aa(lp3881
I64
aI1
aI33
aI15
aa(lp3882
I49
aI44
aI78
aI47
aI81
aI82
aI51
aa(lp3883
I56
aI57
aI51
aa(lp3884
I73
aI67
aI46
aI54
aa(lp3885
I1
aI59
aI79
aa(lp3886
I1
aI3
aI38
aa(lp3887
I72
aI74
aI76
aI77
aI88
aI63
aa(lp3888
I17
aI73
aI63
aa(lp3889
I8
aI1
aI3
aa(lp3890
I72
aI1
aI84
aI77
aI62
aa(lp3891
I1
aI33
aa(lp3892
I44
aI50
aI47
aI48
aI81
aI82
aI51
aI84
aI85
aI79
aI62
aa(lp3893
I1
aI67
aI44
aI46
aI62
aI31
aa(lp3894
I1
aI2
aI3
aI8
aI52
aI53
aa(lp3895
I40
aI1
aI37
aI39
aa(lp3896
I56
aI57
aI79
aa(lp3897
I32
aI1
aI3
aI77
aI8
aa(lp3898
I56
aI57
aI50
aI48
aa(lp3899
I81
aI70
aI1
aa(lp3900
I32
aI1
aI67
aI44
aI46
aI47
aI62
aa(lp3901
I1
aI27
aI38
aa(lp3902
I1
aI75
aI67
aI62
aI51
aa(lp3903
I1
aI2
aI27
aI77
aa(lp3904
I1
aI33
aI72
aI73
aI75
aI47
aI84
aI85
aI31
aI62
aI63
aa(lp3905
I73
aI63
aI1
aa(lp3906
I1
aI67
aI44
aI46
aI62
aI31
aa(lp3907
I1
aI42
aI28
aa(lp3908
I1
aI35
aI36
aa(lp3909
I64
aI1
aI84
aI87
aa(lp3910
I65
aI2
aI84
aI33
aa(lp3911
I1
aI27
aI28
aI62
aI65
aa(lp3912
I1
aI28
aI54
aI15
aa(lp3913
I24
aI22
aa(lp3914
I1
aI7
aI73
aI27
aI62
aI31
aa(lp3915
I11
aI1
aI3
aI15
aa(lp3916
I72
aI65
aI62
aa(lp3917
I1
aI72
aI75
aI47
aI84
aI62
aa(lp3918
I1
aI27
aI37
aI43
aa(lp3919
I1
aI67
aI15
aI51
aI22
aI28
aI31
aa(lp3920
I1
aI31
aI85
aI33
aa(lp3921
I65
aI1
aI73
aI77
aI84
aI27
aa(lp3922
I1
aI72
aI74
aI76
aI77
aI84
aa(lp3923
I67
aI44
aI54
aI47
aa(lp3924
I1
aI18
aI34
aa(lp3925
I64
aI32
aI67
aI1
aI47
aI84
aI86
aI62
aa(lp3926
I1
aI79
aI49
aI51
aI47
aa(lp3927
I1
aI3
aI38
aa(lp3928
I67
aI47
aI49
aI50
aI51
aI54
aa(lp3929
I8
aI1
aI31
aI15
aa(lp3930
I67
aI59
aI44
aa(lp3931
I1
aI7
aa(lp3932
I17
aI2
aI62
aa(lp3933
I72
aI67
aI84
aI46
aI63
aa(lp3934
I58
aI3
aa(lp3935
I50
aI67
aa(lp3936
I1
aI67
aI51
aI84
aI53
aI55
aI62
aI63
aa(lp3937
I1
aI3
aI13
aI6
aa(lp3938
I1
aI20
aa(lp3939
I75
aI67
aI84
aI62
aI63
aa(lp3940
I64
aI1
aI3
aI8
aI13
aI31
aa(lp3941
I73
aI76
aa(lp3942
I10
aI3
aa(lp3943
I74
aI76
aI77
aI31
aa(lp3944
I17
aI51
aa(lp3945
I1
aI60
aI62
aa(lp3946
I3
aI21
aa(lp3947
I1
aI2
aI9
aa(lp3948
I57
aI50
aI67
aI44
aa(lp3949
I1
aI44
aI70
aI81
aa(lp3950
I64
aI65
aI84
aI86
aa(lp3951
I1
aI51
aI86
aI46
aa(lp3952
I8
aI3
aI20
aa(lp3953
I67
aI44
aI78
aI79
aI49
aI82
aI62
aa(lp3954
I1
aI67
aI47
aI50
aI51
aI61
aa(lp3955
I72
aI73
aI74
aI76
aI44
aI84
aI62
aa(lp3956
I65
aI62
aI1
aa(lp3957
I8
aI1
aI3
aI5
aI6
aa(lp3958
I81
aI67
aI78
aI79
aa(lp3959
I1
aI35
aa(lp3960
I9
aI21
aI1
aa(lp3961
I82
aI44
aI62
aI63
aa(lp3962
I3
aI6
aa(lp3963
I1
aI2
aI3
aI4
aI6
aI33
aI10
aI13
aa(lp3964
I1
aI67
aI44
aI46
aI62
aI31
aa(lp3965
I90
aI47
aa(lp3966
I1
aI77
aa(lp3967
I81
aI44
aa(lp3968
I1
aI42
aI28
aI62
aa(lp3969
I3
aI1
aI27
aI38
aI31
aa(lp3970
I72
aI78
aI79
aa(lp3971
I88
aI17
aI65
aa(lp3972
I1
aI67
aI72
aI75
aI77
aI62
aa(lp3973
I57
aI51
aI78
aa(lp3974
I79
aI52
aI47
aa(lp3975
I64
aI1
aI67
aI47
aI48
aI49
aI60
aI62
aI31
aa(lp3976
I1
aI67
aI44
aI78
aI47
aI81
aI55
aI62
aa(lp3977
I52
aI55
aa(lp3978
I17
aI3
aa(lp3979
I1
aI85
aI7
aa(lp3980
I64
aI72
aI74
aI75
aI76
aI86
aI62
aI63
aa(lp3981
I72
aI17
aI74
aI73
aa(lp3982
I9
aI15
aa(lp3983
I1
aI34
aa(lp3984
I1
aI10
aI7
aa(lp3985
I1
aI34
aI27
aa(lp3986
I72
aI17
aI75
aI77
aa(lp3987
I51
aI67
aI47
aI55
aa(lp3988
I1
aI27
aI33
aI77
aI7
aa(lp3989
I8
aI1
aI18
aI3
aI10
aa(lp3990
I64
aI1
aI67
aI19
aI28
aI62
aa(lp3991
I1
aI77
aI62
aa(lp3992
I88
aI33
aI31
aa(lp3993
I17
aI44
aI70
aI81
aa(lp3994
I15
aI1
aI3
aI6
aI31
aa(lp3995
I1
aI27
aI77
aI6
aI31
aa(lp3996
I64
aI1
aI31
aI44
aI47
aI18
aI52
aI86
aI84
aI27
aI62
aI63
aa(lp3997
I84
aI62
aI63
aa(lp3998
I27
aI1
aI18
aI19
aI2
aa(lp3999
I44
aI47
aI48
aI51
aI54
aI57
aa(lp4000
I48
aI50
aI51
aI54
aI47
aa(lp4001
I17
aI51
aI44
aI81
aa(lp4002
I10
aI3
aI44
aI13
aa(lp4003
I48
aI67
aI59
aI47
aa(lp4004
I1
aI44
aI79
aI50
aI53
aI47
aa(lp4005
I88
aI1
aI43
aa(lp4006
I1
aI27
aI70
aa(lp4007
I1
aI73
aI74
aI44
aI47
aI17
aa(lp4008
I40
aI1
aI37
aI39
aa(lp4009
I31
aI1
aI3
aI15
aa(lp4010
I72
aI73
aI84
aI62
aa(lp4011
I1
aI67
aI47
aI73
aI63
aa(lp4012
I8
aI1
aa(lp4013
I51
aI67
aI44
aI55
aI47
aa(lp4014
I1
aI44
aI78
aI47
aI81
aI51
aI52
aI85
aI79
aa(lp4015
I32
aI1
aI43
aI44
aI15
aI27
aI62
aI31
aa(lp4016
I67
aI51
aI53
aa(lp4017
I1
aI73
aI74
aI84
aI27
aI62
aa(lp4018
I1
aI2
aI3
aI4
aa(lp4019
I8
aI1
aI5
aa(lp4020
I1
aI51
aI52
aI47
aa(lp4021
I1
aI31
aI52
aI53
aI55
aa(lp4022
I1
aI44
aI47
aI81
aI51
aI85
aa(lp4023
I40
aI1
aI39
aa(lp4024
I73
aI60
aa(lp4025
I9
aI28
aI1
aa(lp4026
I1
aI67
aI77
aI47
aI48
aI51
aI59
aa(lp4027
I81
aI78
aI79
aa(lp4028
I51
aI52
aI53
aa(lp4029
I1
aI67
aI47
aI48
aI49
aI50
aI51
aI59
aa(lp4030
I67
aI81
aI50
aI51
aI88
aI62
aa(lp4031
I1
aI58
aa(lp4032
I47
aI51
aI44
aI53
aI55
aa(lp4033
I48
aI67
aI54
aI47
aa(lp4034
I40
aI1
aI39
aa(lp4035
I8
aI1
aa(lp4036
I1
aI67
aI73
aI74
aI62
aI63
aa(lp4037
I33
aI67
aI72
aI73
aI74
aI76
aI62
aI31
aa(lp4038
I1
aI67
aI51
aI86
aI61
aI62
aa(lp4039
I1
aI67
aI50
aI51
aI86
aI55
aa(lp4040
I1
aI20
aI62
aI9
aa(lp4041
I1
aI44
aI77
aI62
aI47
aa(lp4042
I1
aI67
aI44
aI47
aI49
aI86
aI62
aa(lp4043
I1
aI67
aI72
aI75
aI18
aI84
aI27
aI62
aI63
aa(lp4044
I1
aI2
aI67
aI44
aI47
aI58
aI63
aa(lp4045
I64
aI9
aI49
aI51
aI88
aI28
aI31
aa(lp4046
I81
aI44
aI70
aI89
aa(lp4047
I1
aI67
aI44
aI50
aI78
aI47
aI48
aI82
aI51
aI79
aI61
aI62
aa(lp4048
I49
aI50
aI52
aI54
aI47
aa(lp4049
I48
aI1
aI67
aI52
aa(lp4050
I32
aI1
aI38
aa(lp4051
I40
aI1
aI37
aI39
aa(lp4052
I17
aI75
aI77
aI65
aI1
aa(lp4053
I1
aI3
aI4
aa(lp4054
I40
aI1
aI15
aI39
aa(lp4055
I8
aI1
aI38
aa(lp4056
I1
aI33
aI7
aa(lp4057
I1
aI44
aI62
aI46
aa(lp4058
I58
aI67
aI44
aa(lp4059
I67
aI54
aI47
aa(lp4060
I57
aI67
aI49
aI47
aa(lp4061
I1
aI18
aI27
aI22
aI31
aa(lp4062
I89
aI51
aI81
aa(lp4063
I74
aI76
aa(lp4064
I1
aI67
aI60
aI62
aa(lp4065
I1
aI3
aI4
aI6
aa(lp4066
I40
aI1
aI62
aI39
aa(lp4067
I1
aI27
aI36
aI35
aa(lp4068
I1
aI58
aI67
aI54
aI47
aa(lp4069
I51
aI67
aI44
aI61
aa(lp4070
I64
aI67
aI44
aI79
aI81
aI82
aI51
aa(lp4071
I1
aI67
aI8
aI47
aI49
aI50
aI3
aI60
aI62
aa(lp4072
I1
aI76
aI73
aa(lp4073
I1
aI27
aI25
aa(lp4074
I64
aI1
aI47
aI49
aI50
aI51
aI60
aa(lp4075
I1
aI67
aI46
aI47
aI48
aI49
aI3
aI59
aI62
aa(lp4076
I51
aI78
aI79
aa(lp4077
I1
aI2
aI38
aI15
aa(lp4078
I56
aI51
aI67
aI57
aa(lp4079
I67
aI47
aI48
aI49
aI51
aI54
aa(lp4080
I1
aI18
aI34
aa(lp4081
I1
aI3
aI4
aI14
aI31
aa(lp4082
I1
aI18
aI34
aI38
aa(lp4083
I1
aI15
aI28
aI77
aI9
aa(lp4084
I27
aI1
aI31
aI38
aI15
aa(lp4085
I1
aI75
aI67
aI73
aI47
aa(lp4086
I64
aI1
aI72
aI75
aI47
aI51
aI85
aI62
aa(lp4087
I1
aI27
aI33
aa(lp4088
I17
aI82
aI78
aa(lp4089
I1
aI72
aI44
aI74
aI75
aI76
aI77
aI84
aI62
aa(lp4090
I1
aI67
aI62
aI59
aa(lp4091
I1
aI67
aI84
aI21
aI28
aI62
aa(lp4092
I81
aI90
aI44
aI70
aa(lp4093
I64
aI1
aI67
aI28
aI62
aI31
aa(lp4094
I72
aI1
aI76
aI44
aI73
aa(lp4095
I72
aI17
aI51
aI62
aI63
aa(lp4096
I67
aI28
aI62
aa(lp4097
I18
aI59
aI44
aa(lp4098
I49
aI50
aI67
aI57
aa(lp4099
I40
aI1
aI37
aI39
aa(lp4100
I1
aI70
aI47
aa(lp4101
I88
aI1
aI31
aa(lp4102
I44
aI79
aI81
aI50
aI53
aI86
aI85
aa(lp4103
I1
aI73
aI47
aa(lp4104
I1
aI75
aI84
aa(lp4105
I56
aI50
aI51
aa(lp4106
I1
aI4
aI15
aI16
aI27
aI31
aa(lp4107
I57
aI51
aI55
aa(lp4108
I1
aI44
aI78
aI79
aI81
aI82
aa(lp4109
I64
aI84
aI76
aI62
aI72
aa(lp4110
I1
aI72
aI78
aI84
aI62
aI63
aa(lp4111
I67
aI73
aI77
aI47
aI48
aI61
aa(lp4112
I1
aI15
aI7
aa(lp4113
I17
aI84
aI65
aa(lp4114
I49
aI51
aI44
aI59
aI47
aa(lp4115
I72
aI17
aI75
aI84
aI65
aa(lp4116
I1
aI67
aI59
aI49
aa(lp4117
I17
aI77
aI47
aa(lp4118
I64
aI1
aI79
aI81
aI27
aI31
aa(lp4119
I72
aI1
aI75
aI85
aI27
aa(lp4120
I40
aI1
aI37
aI39
aa(lp4121
I1
aI67
aI59
aI77
aI47
aa(lp4122
I1
aI18
aI31
aI58
aI47
aa(lp4123
I81
aI82
aI44
aI79
aa(lp4124
I1
aI3
aI5
aI33
aI8
aI27
aI31
aa(lp4125
I1
aI3
aI20
aa(lp4126
I44
aI47
aI86
aI31
aI62
aI63
aa(lp4127
I8
aI1
aI3
aI38
aa(lp4128
I10
aI3
aI13
aa(lp4129
I49
aI50
aI59
aI44
aI47
aa(lp4130
I56
aI1
aI51
aI54
aa(lp4131
I32
aI1
aI46
aa(lp4132
I1
aI31
aI15
aa(lp4133
I1
aI84
aI61
aI47
aa(lp4134
I1
aI72
aI44
aI47
aI51
aI84
aI85
aI86
aa(lp4135
I1
aI43
aI37
aI62
aa(lp4136
I1
aI42
aI62
aa(lp4137
I51
aI67
aI54
aI47
aa(lp4138
I40
aI1
aI39
aa(lp4139
I1
aI73
aI74
aI76
aI47
aI62
aa(lp4140
I3
aI1
aI18
aI19
aI8
aa(lp4141
I72
aI1
aI62
aI73
aa(lp4142
I88
aI17
aI65
aa(lp4143
I1
aI50
aI67
aI51
aI47
aa(lp4144
I8
aI1
aI3
aI20
aa(lp4145
I1
aI10
aI52
aa(lp4146
I1
aI43
aI37
aI62
aa(lp4147
I1
aI67
aI59
aI47
aI63
aa(lp4148
I72
aI74
aI76
aa(lp4149
I32
aI1
aI37
aI62
aI15
aa(lp4150
I79
aI67
aI78
aI62
aI47
aa(lp4151
I81
aI82
aI79
aa(lp4152
I72
aI1
aI76
aI62
aI32
aa(lp4153
I1
aI72
aI76
aI74
aI44
aI77
aI18
aI84
aI62
aa(lp4154
I32
aI1
aI47
aI49
aI86
aI61
aa(lp4155
I1
aI90
aI84
aI62
aa(lp4156
I1
aI10
aI31
aI7
aa(lp4157
I17
aI28
aI1
aa(lp4158
I78
aI51
aI52
aI53
aI62
aa(lp4159
I64
aI1
aI67
aI44
aI77
aI47
aI49
aI50
aI51
aI28
aI62
aI31
aa(lp4160
I18
aI62
aI63
aa(lp4161
I1
aI49
aI44
aI79
aI48
aI81
aI85
aa(lp4162
I1
aI58
aI79
aa(lp4163
I1
aI50
aI51
aI44
aa(lp4164
I1
aI67
aI77
aI47
aI84
aI62
aa(lp4165
I48
aI56
aI67
aI51
aI57
aa(lp4166
I1
aI62
aI6
aa(lp4167
I72
aI74
aI76
aI77
aI47
aI85
aI62
aa(lp4168
I17
aI84
aI73
aa(lp4169
I1
aI27
aI35
aa(lp4170
I1
aI67
aI44
aI47
aI48
aI49
aI59
aa(lp4171
I1
aI67
aI87
aa(lp4172
I33
aI79
aI44
aI47
aa(lp4173
I1
aI3
aI22
aa(lp4174
I64
aI18
aI3
aa(lp4175
I72
aI73
aI85
aI62
aI1
aa(lp4176
I40
aI1
aI37
aI39
aa(lp4177
I8
aI1
aI3
aI4
aa(lp4178
I81
aI62
aI70
aa(lp4179
I81
aI82
aI79
aa(lp4180
I57
aI50
aI51
aa(lp4181
I49
aI50
aI87
aI44
aI47
aa(lp4182
I8
aI1
aI47
aa(lp4183
I1
aI72
aI73
aI74
aI76
aI47
aI44
aI62
aa(lp4184
I17
aI90
aI87
aI81
aI47
aa(lp4185
I1
aI67
aI44
aI48
aI49
aI59
aI62
aa(lp4186
I64
aI1
aI67
aI47
aI16
aI28
aI62
aa(lp4187
I1
aI67
aI85
aI62
aI31
aa(lp4188
I32
aI73
aI76
aI44
aI84
aI88
aa(lp4189
I24
aI1
aI25
aa(lp4190
I8
aI1
aI10
aI3
aa(lp4191
I1
aI27
aI33
aa(lp4192
I1
aI67
aI52
aI62
aI47
aa(lp4193
I65
aI33
aI44
aI84
aI27
aI62
aI31
aa(lp4194
I1
aI27
aI28
aa(lp4195
I27
aI1
aI10
aI3
aa(lp4196
I1
aI67
aI73
aI76
aI47
aI60
aa(lp4197
I8
aI3
aI20
aa(lp4198
I1
aI67
aI75
aI62
aa(lp4199
I8
aI1
aI27
aI3
aI33
aa(lp4200
I40
aI1
aI15
aI39
aa(lp4201
I44
aI78
aI79
aI82
aI51
aI62
aa(lp4202
I72
aI74
aI76
aI77
aI47
aI84
aI87
aa(lp4203
I1
aI72
aI75
aI85
aI62
aI63
aa(lp4204
I44
aI47
aI81
aI82
aI79
aI62
aa(lp4205
I72
aI73
aI74
aI76
aI77
aa(lp4206
I32
aI1
aI21
aa(lp4207
I8
aI9
aI10
aI3
aI6
aa(lp4208
I64
aI85
aa(lp4209
I65
aI1
aI73
aI76
aI88
aI62
aa(lp4210
I9
aI18
aI1
aa(lp4211
I32
aI1
aI19
aI64
aI31
aa(lp4212
I1
aI73
aI75
aI44
aI77
aI46
aI47
aI51
aa(lp4213
I33
aI31
aI1
aI15
aa(lp4214
I8
aI3
aI14
aa(lp4215
I1
aI67
aI47
aI50
aI54
aI60
aI62
aI63
aa(lp4216
I65
aI1
aI72
aI73
aI51
aI84
aa(lp4217
I1
aI67
aI44
aI47
aI49
aI59
aI61
aa(lp4218
I1
aI67
aI47
aI48
aI49
aI51
aa(lp4219
I72
aI1
aI18
aI62
aa(lp4220
I8
aI1
aI5
aa(lp4221
I81
aI44
aI78
aI79
aI49
aI50
aa(lp4222
I32
aI1
aI67
aI75
aI44
aI46
aI47
aI62
aa(lp4223
I28
aI2
aI3
aI4
aI1
aa(lp4224
I1
aI27
aI35
aa(lp4225
I64
aI1
aI2
aI67
aI47
aI84
aI54
aa(lp4226
I64
aI67
aI46
aI47
aI48
aI49
aI50
aI51
aI86
aI62
aa(lp4227
I8
aI1
aI10
aI3
aI4
aa(lp4228
I48
aI1
aI67
aI54
aa(lp4229
I33
aI1
aI9
aI47
aa(lp4230
I64
aI1
aI65
aa(lp4231
I72
aI73
aI74
aI76
aI77
aI47
aa(lp4232
I1
aI51
aI70
aa(lp4233
I1
aI2
aI3
aI10
aI6
aa(lp4234
I1
aI90
aI63
aa(lp4235
I1
aI67
aI46
aI47
aI51
aI59
aI62
aa(lp4236
I17
aI27
aI1
aa(lp4237
I1
aI38
aa(lp4238
I88
aI1
aI84
aI62
aa(lp4239
I72
aI75
aI51
aI84
aI62
aI63
aa(lp4240
I1
aI27
aI36
aa(lp4241
I1
aI2
aI38
aI9
aI15
aI16
aa(lp4242
I1
aI2
aa(lp4243
I56
aI50
aI51
aa(lp4244
I1
aI31
aI15
aa(lp4245
I64
aI17
aI74
aI73
aa(lp4246
I50
aI44
aI15
aa(lp4247
I72
aI28
aI15
aa(lp4248
I11
aI13
aI15
aa(lp4249
I56
aI67
aI51
aI44
aa(lp4250
I1
aI75
aI62
aa(lp4251
I72
aI73
aI74
aI75
aI76
aI47
aI44
aI62
aa(lp4252
I1
aI3
aa(lp4253
I1
aI2
aI3
aI8
aI22
aI27
aI31
aa(lp4254
I15
aI1
aI27
aI38
aI31
aa(lp4255
I17
aI70
aa(lp4256
I1
aI35
aa(lp4257
I1
aI67
aI44
aI47
aI48
aI49
aI50
aI51
aI55
aa(lp4258
I17
aI79
aI44
aI46
aI73
aa(lp4259
I24
aI25
aa(lp4260
I1
aI38
aa(lp4261
I1
aI67
aI47
aI54
aI49
aa(lp4262
I64
aI17
aa(lp4263
I1
aI59
aa(lp4264
I1
aI6
aa(lp4265
I9
aI28
aI1
aa(lp4266
I8
aI9
aI3
aI1
aI7
aa(lp4267
I8
aI1
aI5
aa(lp4268
I1
aI77
aI15
aa(lp4269
I1
aI79
aa(lp4270
I1
aI58
aa(lp4271
I1
aI7
aa(lp4272
I1
aI67
aI65
aI72
aI73
aI74
aI75
aI76
aa(lp4273
I1
aI62
aI33
aa(lp4274
I1
aI82
aI77
aI31
aa(lp4275
I8
aI19
aa(lp4276
I1
aI18
aI42
aa(lp4277
I51
aI54
aa(lp4278
I88
aI65
aI62
aI73
aI1
aa(lp4279
I48
aI54
aI47
aa(lp4280
I32
aI1
aI10
aI28
aI31
aa(lp4281
I64
aI1
aI18
aI27
aa(lp4282
I48
aI51
aI44
aI61
aI55
aa(lp4283
I1
aI51
aI44
aI77
aI81
aa(lp4284
I1
aI84
aI87
aa(lp4285
I1
aI67
aI73
aI75
aI46
aI84
aI63
aa(lp4286
I1
aI47
aI48
aI85
aI86
aI61
aa(lp4287
I1
aI42
aI27
aa(lp4288
I65
aI47
aI84
aI62
aI44
aa(lp4289
I10
aI3
aI5
aI85
aa(lp4290
I67
aI46
aI47
aI48
aI50
aI51
aI57
aI61
aa(lp4291
I1
aI31
aI7
aa(lp4292
I8
aI1
aI3
aa(lp4293
I1
aI42
aI27
aa(lp4294
I32
aI1
aI67
aI46
aI48
aI49
aI86
aI62
aa(lp4295
I8
aI18
aI3
aa(lp4296
I82
aI84
aI78
aI79
aa(lp4297
I44
aI79
aI48
aI81
aI50
aI51
aI47
aa(lp4298
I18
aI84
aI62
aa(lp4299
I1
aI44
aI77
aa(lp4300
I27
aI1
aI35
aa(lp4301
I72
aI73
aI74
aI75
aI76
aI84
aI62
aa(lp4302
I1
aI10
aI3
aI13
aa(lp4303
I1
aI77
aI62
aa(lp4304
I81
aI82
aI78
aa(lp4305
I67
aI44
aI47
aI48
aI49
aI56
aa(lp4306
I17
aI67
aI44
aa(lp4307
I1
aI67
aI44
aI46
aI47
aI62
aa(lp4308
I1
aI27
aI33
aa(lp4309
I1
aI60
aI63
aa(lp4310
I1
aI67
aI31
aa(lp4311
I9
aI85
aI1
aa(lp4312
I1
aI37
aI43
aI44
aI84
aI27
aI31
aa(lp4313
I72
aI1
aI63
aa(lp4314
I1
aI9
aI15
aa(lp4315
I1
aI67
aI47
aI49
aI50
aI51
aI61
aa(lp4316
I17
aI44
aI81
aI47
aa(lp4317
I1
aI3
aI77
aa(lp4318
I1
aI67
aI44
aI46
aa(lp4319
I1
aI43
aI37
aI62
aI85
aa(lp4320
I1
aI67
aI77
aI46
aI51
aI78
aI62
aa(lp4321
I1
aI38
aI62
aa(lp4322
I1
aI2
aI28
aI62
aI31
aa(lp4323
I1
aI67
aI46
aI48
aI49
aI50
aa(lp4324
I32
aI1
aI77
aa(lp4325
I1
aI4
aI77
aa(lp4326
I72
aI1
aI75
aI31
aa(lp4327
I64
aI84
aI85
aI86
aI62
aI63
aa(lp4328
I44
aI50
aI78
aI79
aI49
aI82
aa(lp4329
I72
aI73
aI74
aI76
aa(lp4330
I8
aI1
aI4
aa(lp4331
I67
aI46
aI48
aI50
aI56
aI57
aa(lp4332
I56
aI57
aI50
aI51
aa(lp4333
I18
aI2
aI15
aa(lp4334
I1
aI44
aI87
aa(lp4335
I81
aI44
aI70
aa(lp4336
I88
aI65
aI1
aa(lp4337
I1
aI90
aI65
aI63
aa(lp4338
I72
aI84
aI75
aI76
aa(lp4339
I1
aI2
aI3
aI4
aI6
aI8
aI31
aa(lp4340
I72
aI73
aI74
aI76
aI77
aa(lp4341
I1
aI27
aI35
aa(lp4342
I67
aI44
aI46
aI62
aa(lp4343
I1
aI67
aI72
aI75
aI44
aI63
aa(lp4344
I64
aI67
aI86
aa(lp4345
I4
aI6
aa(lp4346
I50
aI67
aI60
aI47
aa(lp4347
I40
aI1
aI39
aI62
aI15
aa(lp4348
I1
aI31
aI37
aI62
aI77
aa(lp4349
I73
aI74
aI63
aa(lp4350
I8
aI1
aI10
aI3
aI17
aa(lp4351
I1
aI15
aa(lp4352
I72
aI1
aI73
aa(lp4353
I3
aI1
aI19
aa(lp4354
I40
aI1
aI37
aa(lp4355
I1
aI21
aI31
aa(lp4356
I73
aI74
aI77
aI62
aI1
aa(lp4357
I1
aI84
aI77
aI62
aa(lp4358
I1
aI2
aI27
aI59
aI31
aa(lp4359
I64
aI1
aI67
aI47
aI50
aI62
aI63
aa(lp4360
I1
aI67
aI44
aI77
aI46
aI50
aI85
aI62
aa(lp4361
I1
aI6
aI31
aa(lp4362
I1
aI90
aI77
aa(lp4363
I72
aI73
aI74
aI76
aI77
aI84
aa(lp4364
I3
aI1
aI19
aa(lp4365
I9
aI1
aa(lp4366
I17
aI84
aI33
aa(lp4367
I1
aI84
aI85
aI65
aa(lp4368
I1
aI72
aI51
aI84
aI85
aI62
aI63
aa(lp4369
I72
aI75
aI62
aI63
aa(lp4370
I1
aI18
aI35
aa(lp4371
I1
aI67
aI44
aI62
aI47
aa(lp4372
I84
aI1
aI73
aI62
aI47
aa(lp4373
I58
aI67
aI47
aa(lp4374
I17
aI51
aI76
aa(lp4375
I1
aI28
aI73
aa(lp4376
I1
aI3
aI6
aa(lp4377
I1
aI67
aI46
aI47
aI50
aI61
aI62
aa(lp4378
I65
aI84
aI86
aa(lp4379
I64
aI46
aI79
aI81
aI85
aI86
aI47
aa(lp4380
I40
aI1
aI39
aa(lp4381
I85
aI86
aI79
aa(lp4382
I3
aI11
aI13
aa(lp4383
I72
aI75
aI18
aI84
aI62
aI63
aa(lp4384
I67
aI47
aI48
aI49
aI50
aI51
aI57
aI62
aa(lp4385
I1
aI21
aI62
aa(lp4386
I33
aI1
aI8
aI9
aI27
aI31
aa(lp4387
I67
aI28
aI62
aa(lp4388
I1
aI87
aI49
aa(lp4389
I64
aI1
aI2
aI62
aI15
aa(lp4390
I64
aI1
aI77
aI62
aa(lp4391
I1
aI67
aI54
aI57
aa(lp4392
I1
aI78
aI79
aI82
aI51
aI61
aa(lp4393
I1
aI15
aI51
aI22
aI31
aa(lp4394
I1
aI62
aI38
aa(lp4395
I64
aI67
aI78
aI47
aI82
aI51
aI84
aI86
aI79
aI62
aa(lp4396
I56
aI1
aI57
aI15
aa(lp4397
I1
aI67
aI47
aI48
aI50
aI51
aI56
aI57
aI62
aa(lp4398
I49
aI67
aI51
aI59
aa(lp4399
I1
aI67
aI62
aI46
aI59
aa(lp4400
I1
aI3
aI38
aa(lp4401
I59
aI67
aI47
aa(lp4402
I1
aI58
aI3
aI31
aa(lp4403
I73
aI74
aI67
aI62
aa(lp4404
I64
aI33
aI44
aI78
aI51
aI84
aa(lp4405
I40
aI1
aI58
aI39
aa(lp4406
I1
aI3
aI77
aI62
aI41
aa(lp4407
I10
aI3
aI6
aI15
aa(lp4408
I1
aI10
aI3
aI28
aa(lp4409
I72
aI73
aI74
aI76
aI84
aI62
aa(lp4410
I84
aI44
aI70
aa(lp4411
I81
aI44
aI70
aa(lp4412
I1
aI67
aI77
aI46
aI49
aa(lp4413
I1
aI18
aI15
aa(lp4414
I1
aI22
aI31
aa(lp4415
I1
aI67
aI44
aI46
aI47
aI48
aI49
aI51
aI86
aI61
aa(lp4416
I1
aI44
aI46
aI31
aa(lp4417
I1
aI18
aI75
aI84
aI63
aa(lp4418
I11
aI1
aI3
aI14
aa(lp4419
I67
aI52
aI53
aI55
aa(lp4420
I11
aI8
aI3
aa(lp4421
I1
aI27
aI35
aI31
aa(lp4422
I1
aI42
aI27
aa(lp4423
I1
aI2
aI44
aI15
aI51
aI27
aI31
aa(lp4424
I1
aI67
aI44
aI48
aI54
aI58
aa(lp4425
I72
aI73
aI74
aI76
aI77
aI62
aa(lp4426
I1
aI67
aI48
aI49
aI61
aI62
aa(lp4427
I31
aI1
aI3
aI8
aI15
aa(lp4428
I73
aI27
aI77
aa(lp4429
I32
aI1
aI6
aI15
aa(lp4430
I1
aI67
aI63
aI59
aI47
aa(lp4431
I1
aI27
aI36
aa(lp4432
I48
aI73
aI61
aI47
aa(lp4433
I1
aI57
aI25
aa(lp4434
I33
aI72
aI73
aI44
aI47
aI81
aI62
aa(lp4435
I72
aI1
aI75
aI77
aa(lp4436
I67
aI44
aI47
aI48
aI49
aI51
aI54
aI56
aa(lp4437
I67
aI48
aI49
aI50
aI51
aI54
aa(lp4438
I82
aI62
aI50
aI78
aI79
aa(lp4439
I1
aI7
aa(lp4440
I81
aI44
aI62
aI15
aa(lp4441
I8
aI1
aI3
aa(lp4442
I1
aI81
aI44
aI46
aI49
aI78
aI59
aa(lp4443
I64
aI1
aI2
aI67
aI44
aI85
aI27
aI62
aa(lp4444
I2
aI3
aI4
aa(lp4445
I88
aI17
aI75
aI84
aI62
aa(lp4446
I1
aI42
aI28
aI62
aa(lp4447
I72
aI1
aI33
aI31
aa(lp4448
I1
aI28
aI31
aa(lp4449
I1
aI58
aI31
aa(lp4450
I40
aI1
aI37
aI39
aa(lp4451
I1
aI77
aI70
aa(lp4452
I81
aI90
aI44
aI70
aa(lp4453
I50
aI67
aI52
aa(lp4454
I1
aI34
aI3
aa(lp4455
I64
aI78
aI79
aI81
aI51
aI53
aI47
aa(lp4456
I11
aI8
aI3
aI15
aa(lp4457
I1
aI2
aI3
aI10
aa(lp4458
I17
aI62
aI33
aa(lp4459
I1
aI61
aI81
aI49
aa(lp4460
I9
aI15
aI1
aa(lp4461
I1
aI14
aI31
aa(lp4462
I65
aI72
aI74
aI76
aI77
aI47
aI84
aI27
aI62
aa(lp4463
I1
aI58
aa(lp4464
I1
aI84
aI77
aI62
aI63
aa(lp4465
I65
aI73
aI74
aI77
aI47
aI84
aI62
aa(lp4466
I8
aI6
aa(lp4467
I8
aI1
aI4
aa(lp4468
I44
aI78
aI79
aI52
aI53
aI55
aI56
aa(lp4469
I64
aI1
aI3
aI8
aI15
aa(lp4470
I40
aI1
aI39
aa(lp4471
I24
aI16
aI25
aa(lp4472
I82
aI59
aI44
aI78
aa(lp4473
I16
aI8
aa(lp4474
I48
aI57
aI67
aI53
aI61
aa(lp4475
I1
aI84
aI77
aI62
aI63
aa(lp4476
I1
aI36
aa(lp4477
I40
aI1
aI37
aI39
aa(lp4478
I1
aI43
aI62
aa(lp4479
I1
aI67
aI44
aI47
aI50
aI51
aI56
aI62
aa(lp4480
I24
aI25
aI1
aa(lp4481
I1
aI19
aa(lp4482
I73
aI74
aI31
aI76
aI1
aa(lp4483
I49
aI44
aI50
aI46
aI79
aI81
aI82
aI51
aI78
aI47
aa(lp4484
I64
aI65
aI72
aI75
aI84
aI63
aI62
aI31
aa(lp4485
I32
aI1
aI19
aI64
aI31
aa(lp4486
I1
aI3
aI6
aa(lp4487
I1
aI38
aI31
aa(lp4488
I64
aI1
aI19
aI32
aI31
aa(lp4489
I10
aI3
aa(lp4490
I67
aI59
aa(lp4491
I10
aI5
aa(lp4492
I1
aI60
aI63
aa(lp4493
I33
aI27
aI44
aa(lp4494
I8
aa(lp4495
I1
aI18
aI3
aI38
aa(lp4496
I67
aI1
aI2
aI47
aI15
aa(lp4497
I51
aI79
aa(lp4498
I48
aI1
aI50
aI67
aI56
aa(lp4499
I28
aI22
aa(lp4500
I1
aI44
aI47
aI51
aI84
aI79
aa(lp4501
I1
aI38
aa(lp4502
I40
aI1
aI37
aa(lp4503
I64
aI82
aI44
aI62
aa(lp4504
I33
aI27
aI1
aI31
aa(lp4505
I84
aI86
aI62
aI63
aa(lp4506
I81
aI82
aI79
aI78
aI55
aa(lp4507
I48
aI67
aI61
aa(lp4508
I51
aI10
aI3
aI86
aI46
aa(lp4509
I1
aI39
aa(lp4510
I1
aI4
aI73
aa(lp4511
I1
aI19
aI20
aI21
aa(lp4512
I1
aI11
aI28
aI13
aI31
aa(lp4513
I67
aI59
aI62
aI46
aa(lp4514
I81
aI44
aI47
aI49
aI50
aI51
aI79
aa(lp4515
I48
aI1
aI67
aI54
aI47
aa(lp4516
I64
aI1
aI67
aI73
aI77
aI62
aa(lp4517
I8
aI1
aI21
aa(lp4518
I67
aI46
aa(lp4519
I16
aI85
aI62
aI63
aa(lp4520
I1
aI7
aa(lp4521
I72
aI74
aI76
aa(lp4522
I1
aI38
aI15
aa(lp4523
I64
aI67
aI72
aI81
aI82
aI51
aI53
aI55
aI62
aI63
aa(lp4524
I64
aI1
aI75
aI62
aI72
aa(lp4525
I81
aI18
aI44
aI79
aa(lp4526
I3
aI53
aI55
aa(lp4527
I1
aI6
aI31
aa(lp4528
I27
aI1
aI35
aa(lp4529
I51
aI55
aa(lp4530
I72
aI1
aI44
aa(lp4531
I8
aI1
aI6
aa(lp4532
I1
aI43
aa(lp4533
I18
aI60
aI31
aa(lp4534
I1
aI67
aI21
aI62
aa(lp4535
I72
aI74
aI76
aI47
aI84
aI53
aa(lp4536
I72
aI44
aa(lp4537
I1
aI44
aI62
aI70
aI81
aa(lp4538
I1
aI2
aI3
aI8
aI10
aI77
aI15
aa(lp4539
I57
aI50
aI44
aa(lp4540
I56
aI57
aI51
aa(lp4541
I1
aI35
aI36
aI62
aa(lp4542
I8
aI1
aI11
aI31
aa(lp4543
I8
aI9
aI3
aI6
aa(lp4544
I1
aI67
aI44
aI47
aI50
aI51
aa(lp4545
I1
aI67
aI77
aa(lp4546
I1
aI3
aI62
aa(lp4547
I1
aI77
aI46
aa(lp4548
I1
aI67
aI77
aI46
aI51
aI84
aI54
aa(lp4549
I1
aI36
aa(lp4550
I1
aI82
aI79
aa(lp4551
I48
aI67
aI51
aI61
aI47
aa(lp4552
I9
aI15
aI1
aa(lp4553
I72
aI62
aI7
aa(lp4554
I64
aI1
aI47
aI51
aI84
aI63
aa(lp4555
I16
aI8
aI3
aa(lp4556
I64
aI1
aI67
aI48
aI58
aI28
aI62
aI31
aa(lp4557
I1
aI22
aI15
aa(lp4558
I1
aI10
aI2
aI31
aa(lp4559
I1
aI67
aI59
aI47
aI49
aa(lp4560
I1
aI10
aI3
aI6
aa(lp4561
I1
aI44
aI49
aI73
aa(lp4562
I64
aI1
aI75
aI82
aI84
aI62
aa(lp4563
I8
aI1
aI3
aI27
aI33
aa(lp4564
I1
aI72
aI73
aI74
aI76
aI77
aI47
aa(lp4565
I1
aI67
aI44
aI48
aI49
aI50
aI51
aI52
aI53
aI56
aI57
aI62
aa(lp4566
I32
aI1
aI33
aI64
aI15
aa(lp4567
I1
aI79
aI51
aI78
aI47
aa(lp4568
I64
aI1
aI34
aI3
aI47
aI67
aI31
aa(lp4569
I65
aI75
aI44
aI1
aa(lp4570
I1
aI3
aI7
aa(lp4571
I32
aI1
aI53
aa(lp4572
I64
aI72
aI74
aI75
aI62
aI63
aa(lp4573
I8
aI1
aI67
aI3
aI15
aa(lp4574
I1
aI67
aI7
aI46
aI47
aI62
aa(lp4575
I80
aI51
aI44
aI85
aa(lp4576
I16
aI1
aI3
aI15
aa(lp4577
I1
aI2
aI33
aI10
aI7
aI15
aI85
aI62
aa(lp4578
I8
aI1
aI10
aI3
aI6
aa(lp4579
I8
aI1
aI3
aI6
aa(lp4580
I1
aI27
aI33
aI15
aa(lp4581
I1
aI67
aI73
aI44
aI84
aI62
aa(lp4582
I84
aI82
aI44
aa(lp4583
I67
aI44
aI47
aa(lp4584
I27
aI1
aI35
aa(lp4585
I72
aI9
aI47
aI84
aI62
aI63
aa(lp4586
I51
aI86
aI70
aa(lp4587
I8
aI1
aI3
aI38
aI31
aa(lp4588
I73
aI44
aI82
aI78
aI79
aI49
aI50
aI51
aI52
aI53
aa(lp4589
I81
aI82
aI79
aa(lp4590
I8
aI5
aI6
aa(lp4591
I15
aI1
aI43
aI37
aI31
aa(lp4592
I60
aI67
aI52
aI47
aa(lp4593
I17
aI84
aI33
aa(lp4594
I48
aI51
aI67
aI84
aI57
aa(lp4595
I8
aI1
aI27
aI28
aI6
aa(lp4596
I1
aI67
aI44
aI48
aI49
aI50
aI51
aI59
aI62
aa(lp4597
I88
aI32
aI84
aa(lp4598
I1
aI44
aI78
aI47
aI81
aI51
aI52
aI85
aa(lp4599
I81
aI90
aI47
aa(lp4600
I1
aI67
aI44
aI77
aI46
aI51
aa(lp4601
I1
aI3
aI8
aI9
aI15
aI28
aa(lp4602
I17
aI2
aI27
aa(lp4603
I73
aI58
aI67
aI54
aa(lp4604
I1
aI67
aI44
aI47
aI49
aI50
aI58
aa(lp4605
I16
aI1
aI25
aa(lp4606
I27
aI1
aI35
aa(lp4607
I8
aI82
aI44
aI62
aa(lp4608
I48
aI49
aI67
aI59
aa(lp4609
I1
aI77
aI62
aI47
aa(lp4610
I1
aI3
aI28
aa(lp4611
I1
aI10
aI3
aI4
aa(lp4612
I18
aI67
aI61
aI47
aa(lp4613
I64
aI3
aI4
aa(lp4614
I1
aI43
aI5
aI37
aa(lp4615
I1
aI77
aI73
aI63
aa(lp4616
I1
aI52
aI31
aa(lp4617
I8
aI1
aI4
aa(lp4618
I31
aI1
aI3
aI4
aI15
aa(lp4619
I56
aI50
aI51
aa(lp4620
I40
aI1
aI37
aa(lp4621
I44
aI46
aI79
aI49
aI82
aI62
aa(lp4622
I33
aI62
aI31
aa(lp4623
I17
aI70
aI81
aa(lp4624
I64
aI1
aI67
aI60
aa(lp4625
I8
aI1
aI5
aa(lp4626
I1
aI34
aI67
aI28
aI62
aa(lp4627
I87
aI75
aI84
aI63
aa(lp4628
I1
aI2
aI67
aI47
aI50
aI54
aI58
aI62
aa(lp4629
I1
aI73
aI74
aI47
aI84
aI62
aa(lp4630
I1
aI6
aI44
aI51
aI28
aI31
aa(lp4631
I1
aI2
aI38
aa(lp4632
I8
aI1
aI5
aa(lp4633
I64
aI10
aI3
aI6
aa(lp4634
I1
aI67
aI48
aI49
aI51
aI85
aI56
aa(lp4635
I1
aI3
aI6
aa(lp4636
I44
aI79
aI81
aI50
aI51
aI87
aI47
aa(lp4637
I64
aI81
aI44
aI86
aa(lp4638
I1
aI35
aI15
aa(lp4639
I1
aI67
aI44
aI46
aI63
aa(lp4640
I1
aI6
aI15
aa(lp4641
I16
aI1
aI28
aI31
aa(lp4642
I72
aI73
aI74
aI76
aI84
aI85
aI62
aa(lp4643
I3
aI8
aI10
aI11
aI14
aI16
aa(lp4644
I1
aI33
aI15
aa(lp4645
I9
aI3
aI6
aa(lp4646
I67
aI78
aI47
aI81
aI51
aI84
aI31
aI62
aI63
aa(lp4647
I65
aI75
aI51
aI84
aI1
aa(lp4648
I17
aI44
aI81
aa(lp4649
I67
aI44
aI49
aI51
aI56
aI57
aa(lp4650
I1
aI2
aI3
aI37
aI15
aI27
aI28
aa(lp4651
I1
aI2
aI3
aI4
aI8
aI13
aI22
aI62
aa(lp4652
I40
aI1
aI37
aI39
aa(lp4653
I72
aI75
aI84
aI62
aI63
aa(lp4654
I64
aI1
aI49
aI47
aI80
aI81
aI50
aI62
aa(lp4655
I84
aI17
aI18
aI1
aI65
aa(lp4656
I81
aI70
aI47
aa(lp4657
I73
aI74
aI76
aI62
aa(lp4658
I1
aI67
aI51
aI54
aI47
aa(lp4659
I64
aI49
aI44
aI50
aI79
aI80
aI81
aI82
aI51
aa(lp4660
I1
aI47
aI81
aI51
aI85
aI55
aa(lp4661
I1
aI42
aI3
aa(lp4662
I65
aI3
aI1
aI13
aI77
aI31
aa(lp4663
I72
aI75
aI84
aI85
aI86
aI62
aI63
aa(lp4664
I1
aI60
aI15
aa(lp4665
I27
aI1
aI35
aa(lp4666
I1
aI27
aI6
aI31
aa(lp4667
I1
aI82
aI5
aa(lp4668
I1
aI62
aI15
aa(lp4669
I50
aI67
aI61
aI47
aa(lp4670
I44
aI46
aI79
aI49
aI50
aI51
aI47
aa(lp4671
I20
aI21
aI15
aa(lp4672
I16
aI20
aI21
aa(lp4673
I65
aI75
aI1
aa(lp4674
I32
aI1
aI47
aa(lp4675
I41
aI2
aI3
aI1
aa(lp4676
I17
aI84
aa(lp4677
I67
aI78
aI79
aa(lp4678
I44
aI78
aI79
aa(lp4679
I72
aI65
aI86
aI62
aI64
aa(lp4680
I18
aI84
aa(lp4681
I1
aI2
aI3
aI19
aI28
aI31
aa(lp4682
I88
aI17
aI77
aI65
aa(lp4683
I1
aI59
aI44
aa(lp4684
I48
aI67
aI51
aI76
aI55
aa(lp4685
I72
aI73
aI74
aI76
aa(lp4686
I1
aI77
aI47
aa(lp4687
I8
aI1
aI3
aI5
aa(lp4688
I1
aI3
aI37
aI39
aa(lp4689
I8
aI1
aI3
aa(lp4690
I1
aI11
aI77
aI47
aI84
aI31
aa(lp4691
I67
aI47
aI48
aI49
aI50
aI51
aI54
aa(lp4692
I40
aI1
aI37
aI39
aa(lp4693
I1
aI10
aI3
aI7
aa(lp4694
I67
aI44
aI47
aI48
aI49
aI54
aa(lp4695
I27
aI1
aI35
aa(lp4696
I1
aI33
aI85
aI7
aa(lp4697
I1
aI67
aI60
aI61
aI62
aa(lp4698
I9
aI22
aI1
aa(lp4699
I72
aI73
aI74
aI84
aI77
aa(lp4700
I1
aI44
aI39
aa(lp4701
I1
aI67
aI50
aI51
aI61
aI62
aa(lp4702
I32
aI1
aI6
aI10
aI77
aI19
aI31
aa(lp4703
I1
aI54
aI44
aI47
aI48
aI49
aI86
aa(lp4704
I1
aI72
aI73
aI75
aI47
aI84
aI85
aI62
aI63
aa(lp4705
I3
aI1
aI42
aI27
aI38
aa(lp4706
I72
aI18
aI19
aI84
aI63
aa(lp4707
I48
aI49
aI59
aI56
aa(lp4708
I64
aI1
aI67
aI72
aI44
aI47
aI51
aI85
aI86
aI62
aI63
aa(lp4709
I1
aI67
aI44
aI79
aI82
aI57
aI62
aa(lp4710
I1
aI27
aI6
aa(lp4711
I1
aI35
aI36
aa(lp4712
I72
aI74
aI76
aI77
aI47
aa(lp4713
I1
aI2
aI3
aI8
aI10
aI13
aa(lp4714
I64
aI67
aI73
aI46
aI15
aI47
aa(lp4715
I27
aI1
aI35
aI36
aa(lp4716
I9
aI35
aI1
aa(lp4717
I32
aI1
aI3
aI6
aa(lp4718
I1
aI61
aI49
aI62
aI63
aa(lp4719
I1
aI57
aI55
aI53
aI31
aa(lp4720
I64
aI1
aI3
aI6
aI8
aI62
aa(lp4721
I59
aI58
aI67
aa(lp4722
I8
aI1
aI3
aI6
aI31
aa(lp4723
I72
aI1
aI75
aI62
aI47
aa(lp4724
I1
aI67
aI44
aI77
aI47
aI48
aI49
aI59
aI28
aI62
aa(lp4725
I1
aI78
aI79
aa(lp4726
I1
aI33
aI72
aI84
aI88
aI62
aI63
aa(lp4727
I1
aI27
aI4
aa(lp4728
I10
aI3
aI13
aa(lp4729
I64
aI82
aI84
aI62
aI31
aa(lp4730
I1
aI42
aa(lp4731
I8
aI2
aI3
aa(lp4732
I1
aI75
aI63
aa(lp4733
I1
aI9
aI77
aI28
aI62
aI31
aa(lp4734
I1
aI67
aI59
aI47
aa(lp4735
I79
aI44
aI47
aa(lp4736
I33
aI3
aI6
aI1
aI27
aI31
aa(lp4737
I51
aI31
aI1
aI22
aI15
aa(lp4738
I1
aI3
aI38
aa(lp4739
I8
aI1
aI3
aI73
aI15
aa(lp4740
I1
aI3
aI4
aI6
aI8
aI10
aa(lp4741
I80
aI49
aI51
aI87
aa(lp4742
I1
aI50
aI79
aa(lp4743
I1
aI67
aI81
aI44
aI78
aI79
aI49
aI51
aI54
aI58
aI47
aa(lp4744
I50
aI44
aI58
aa(lp4745
I16
aI1
aI3
aI8
aa(lp4746
I65
aI18
aI84
aa(lp4747
I3
aI86
aI63
aa(lp4748
I40
aI1
aI37
aa(lp4749
I82
aI79
aa(lp4750
I1
aI28
aI31
aa(lp4751
I1
aI3
aI4
aa(lp4752
I58
aI67
aa(lp4753
I1
aI65
aI72
aI73
aI75
aI76
aa(lp4754
I1
aI67
aI44
aI46
aI47
aI62
aa(lp4755
I65
aI33
aI72
aI73
aI84
aI27
aI62
aI31
aa(lp4756
I8
aI1
aI3
aI5
aa(lp4757
I49
aI75
aI76
aa(lp4758
I33
aI27
aI31
aa(lp4759
I28
aI62
aI15
aa(lp4760
I1
aI67
aI44
aI47
aI48
aI49
aI54
aI62
aa(lp4761
I8
aI3
aI5
aa(lp4762
I48
aI49
aI67
aI59
aI47
aa(lp4763
I27
aI1
aI18
aI19
aa(lp4764
I67
aI51
aI54
aa(lp4765
I1
aI75
aa(lp4766
I16
aI20
aa(lp4767
I16
aI67
aI6
aa(lp4768
I81
aI44
aI70
aa(lp4769
I48
aI49
aI59
aI47
aa(lp4770
I1
aI38
aa(lp4771
I64
aI3
aI4
aa(lp4772
I16
aI1
aI28
aI31
aa(lp4773
I1
aI50
aI51
aa(lp4774
I65
aI18
aI58
aI54
aa(lp4775
I8
aI1
aI2
aI3
aa(lp4776
I1
aI58
aI51
aa(lp4777
I40
aI1
aI39
aa(lp4778
I1
aI38
aI9
aa(lp4779
I32
aI73
aI47
aI62
aI1
aa(lp4780
I1
aI34
aI44
aa(lp4781
I32
aI1
aI47
aI61
aI49
aa(lp4782
I64
aI15
aa(lp4783
I1
aI52
aa(lp4784
I9
aI20
aa(lp4785
I1
aI31
aI28
aI15
aa(lp4786
I1
aI6
aa(lp4787
I10
aI3
aa(lp4788
I1
aI3
aI4
aa(lp4789
I1
aI38
aa(lp4790
I1
aI67
aI47
aI48
aI49
aI50
aI51
aI62
aa(lp4791
I1
aI3
aI6
aI8
aI77
aI15
aa(lp4792
I1
aI77
aa(lp4793
I1
aI81
aI44
aI82
aI79
aI49
aI18
aI51
aa(lp4794
I8
aI5
aa(lp4795
I49
aI67
aI44
aI57
aI47
aa(lp4796
I1
aI3
aI15
aa(lp4797
I1
aI67
aI44
aI77
aI47
aI50
aI51
aI54
aI58
aI62
aa(lp4798
I18
aI62
aI63
aa(lp4799
I1
aI2
aI44
aI52
aI62
aI31
aa(lp4800
I40
aI1
aI39
aa(lp4801
I32
aI1
aI33
aI62
aI15
aa(lp4802
I70
aI44
aI47
aI81
aI90
aI28
aa(lp4803
I1
aI67
aI47
aI48
aI50
aI51
aI54
aI62
aI31
aa(lp4804
I1
aI15
aa(lp4805
I1
aI18
aI3
aI13
aa(lp4806
I44
aI31
aI20
aI1
aa(lp4807
I1
aI38
aa(lp4808
I56
aI1
aI57
aa(lp4809
I1
aI3
aI8
aI10
aI11
aI14
aI18
aa(lp4810
I52
aI53
aI55
aa(lp4811
I81
aI44
aa(lp4812
I48
aI1
aI67
aI59
aI47
aa(lp4813
I1
aI60
aa(lp4814
I1
aI90
aI3
aI28
aa(lp4815
I67
aI46
aI48
aI49
aI84
aI59
aa(lp4816
I1
aI67
aI44
aI46
aI47
aI49
aI50
aI51
aI84
aI62
aa(lp4817
I84
aI62
aI86
aI63
aa(lp4818
I47
aI50
aI59
aI79
aa(lp4819
I1
aI18
aI63
aa(lp4820
I82
aI79
aa(lp4821
I40
aI1
aI39
aa(lp4822
I76
aI77
aa(lp4823
I17
aI82
aI84
aI33
aa(lp4824
I72
aI73
aI76
aI77
aI47
aI62
aa(lp4825
I64
aI1
aI67
aI72
aI75
aI77
aI62
aa(lp4826
I40
aI1
aI37
aI39
aa(lp4827
I1
aI18
aI31
aI15
aa(lp4828
I49
aI44
aI78
aI79
aI81
aI50
aI51
aI53
aI47
aa(lp4829
I56
aI57
aI49
aI48
aa(lp4830
I1
aI35
aI36
aa(lp4831
I1
aI28
aI62
aa(lp4832
I17
aI51
aI70
aa(lp4833
I1
aI42
aI27
aa(lp4834
I40
aI1
aI39
aa(lp4835
I1
aI27
aI6
aa(lp4836
I64
aI1
aI82
aa(lp4837
I1
aI27
aI36
aI35
aa(lp4838
I67
aI44
aI54
aa(lp4839
I1
aI59
aa(lp4840
I8
aI1
aI18
aI20
aa(lp4841
I16
aI9
aI1
aa(lp4842
I1
aI5
aI6
aa(lp4843
I17
aI76
aI62
aI73
aa(lp4844
I1
aI84
aI89
aa(lp4845
I1
aI34
aI67
aI85
aI28
aI62
aI31
aa(lp4846
I1
aI67
aI47
aI54
aI62
aI31
aa(lp4847
I1
aI77
aI7
aa(lp4848
I40
aI1
aI39
aa(lp4849
I1
aI67
aI47
aI48
aI49
aI51
aI61
aa(lp4850
I64
aI1
aI67
aI9
aI15
aI62
aa(lp4851
I1
aI43
aI37
aa(lp4852
I1
aI77
aI73
aI47
aa(lp4853
I1
aI2
aI67
aI44
aI47
aI48
aI54
aI28
aI62
aa(lp4854
I81
aI78
aI79
aa(lp4855
I1
aI27
aI36
aI35
aa(lp4856
I31
aI27
aI77
aI53
aa(lp4857
I72
aI1
aI84
aa(lp4858
I1
aI15
aI7
aa(lp4859
I3
aI1
aI35
aa(lp4860
I1
aI10
aI4
aa(lp4861
I72
aI74
aI3
aI76
aI77
aa(lp4862
I32
aI1
aI59
aa(lp4863
I1
aI2
aI31
aI15
aa(lp4864
I8
aI1
aI34
aa(lp4865
I64
aI72
aI73
aI74
aI76
aI62
aa(lp4866
I1
aI42
aI18
aa(lp4867
I1
aI2
aI15
aI33
aI7
aa(lp4868
I1
aI3
aI65
aa(lp4869
I72
aI1
aI75
aI62
aI47
aa(lp4870
I18
aI84
aI86
aI62
aI63
aa(lp4871
I1
aI10
aI27
aI4
aa(lp4872
I1
aI47
aI15
aa(lp4873
I1
aI58
aI47
aa(lp4874
I1
aI34
aI62
aI31
aa(lp4875
I65
aI37
aI72
aI44
aI74
aI76
aI77
aI47
aI19
aI84
aI62
aa(lp4876
I1
aI2
aI67
aI8
aI55
aI62
aa(lp4877
I48
aI57
aI67
aa(lp4878
I1
aI85
aI6
aa(lp4879
I1
aI43
aI28
aI37
aa(lp4880
I40
aI1
aI39
aa(lp4881
I1
aI27
aI22
aI31
aa(lp4882
I8
aI10
aI3
aa(lp4883
I1
aI3
aI77
aI14
aa(lp4884
I40
aI1
aI37
aI39
aa(lp4885
I18
aI20
aI21
aa(lp4886
I64
aI1
aI44
aI78
aI79
aI81
aI51
aI52
aI86
aa(lp4887
I1
aI2
aI3
aI8
aI10
aI14
aa(lp4888
I27
aI1
aI35
aa(lp4889
I40
aI1
aI37
aa(lp4890
I64
aI67
aI84
aI62
aI63
aa(lp4891
I51
aI84
aI86
aI63
aa(lp4892
I8
aI10
aI3
aa(lp4893
I40
aI1
aI37
aa(lp4894
I72
aI44
aI78
aI47
aI82
aI51
aI62
aa(lp4895
I48
aI49
aI67
aI59
aI47
aa(lp4896
I1
aI67
aI54
aI46
aI47
aa(lp4897
I72
aI73
aI74
aI76
aa(lp4898
I58
aI67
aI54
aI47
aa(lp4899
I1
aI72
aI74
aI76
aI77
aI62
aa(lp4900
I1
aI82
aI79
aI81
aI47
aa(lp4901
I1
aI67
aI44
aI47
aI49
aI51
aI59
aI62
aa(lp4902
I67
aI47
aI48
aI50
aI51
aI56
aI57
aI61
aa(lp4903
I44
aI50
aI47
aI49
aI82
aI51
aI79
aa(lp4904
I1
aI43
aI44
aI15
aI84
aI85
aI62
aa(lp4905
I49
aI67
aI59
aI47
aI1
aa(lp4906
I56
aI57
aI67
aI46
aa(lp4907
I81
aI82
aI31
aI79
aa(lp4908
I72
aI75
aI84
aI63
aa(lp4909
I72
aI65
aI62
aa(lp4910
I72
aI76
aI62
aa(lp4911
I67
aI81
aI51
aI84
aI62
aI63
aa(lp4912
I67
aI47
aI48
aI50
aI55
aI59
aI62
aa(lp4913
I1
aI82
aI79
aa(lp4914
I1
aI51
aI52
aI54
aI47
aa(lp4915
I64
aI49
aI44
aI79
aI81
aI51
aI47
aa(lp4916
I1
aI3
aI38
aa(lp4917
I27
aI1
aI35
aa(lp4918
I1
aI33
aI31
aa(lp4919
I88
aI17
aI85
aa(lp4920
I81
aI44
aI47
aI49
aI86
aI79
aa(lp4921
I49
aI67
aI52
aI53
aI55
aa(lp4922
I65
aI84
aI1
aa(lp4923
I17
aI47
aI77
aI65
aa(lp4924
I32
aI1
aI75
aa(lp4925
I88
aI84
aI53
aI46
aI47
aa(lp4926
I1
aI19
aI31
aa(lp4927
I40
aI1
aI62
aa(lp4928
I1
aI58
aI57
aa(lp4929
I8
aI18
aI34
aI3
aI13
aa(lp4930
I64
aI1
aI34
aI54
aa(lp4931
I1
aI27
aI35
aa(lp4932
I67
aI46
aI47
aI50
aI51
aI54
aa(lp4933
I1
aI75
aI84
aI62
aa(lp4934
I32
aI1
aI28
aI77
aa(lp4935
I1
aI67
aI62
aI46
aa(lp4936
I1
aI27
aI36
aa(lp4937
I17
aI65
aI1
aa(lp4938
I8
aI1
aI10
aI3
aI31
aa(lp4939
I60
aI18
aI84
aI82
aa(lp4940
I27
aI1
aI35
aa(lp4941
I81
aI44
aI70
aa(lp4942
I65
aI86
aI89
aa(lp4943
I76
aI17
aI1
aI73
aI63
aa(lp4944
I1
aI8
aI10
aI27
aI28
aI31
aa(lp4945
I1
aI18
aI28
aI31
aa(lp4946
I1
aI33
aI72
aI73
aI77
aI27
aI62
aa(lp4947
I1
aI67
aI72
aI73
aI74
aI47
aI62
aa(lp4948
I65
aI62
aI63
aa(lp4949
I40
aI1
aI39
aa(lp4950
I1
aI43
aI37
aa(lp4951
I81
aI44
aI79
aa(lp4952
I9
aI85
aI1
aa(lp4953
I16
aI9
aI34
aI15
aI1
aa(lp4954
I82
aI51
aI44
aa(lp4955
I50
aI59
aI47
aa(lp4956
I64
aI67
aI78
aI47
aI81
aI82
aI51
aI52
aI53
aI86
aI79
aI62
aa(lp4957
I64
aI1
aI67
aI44
aI47
aI48
aI50
aI51
aI86
aI62
aa(lp4958
I88
aI65
aI1
aa(lp4959
I67
aI46
aI48
aI49
aI50
aI51
aI84
aI58
aa(lp4960
I1
aI27
aI85
aa(lp4961
I1
aI67
aI73
aI77
aI15
aI27
aI31
aa(lp4962
I67
aI44
aI79
aI82
aI51
aI87
aI47
aI62
aa(lp4963
I8
aI1
aI5
aa(lp4964
I48
aI1
aI50
aI51
aI59
aa(lp4965
I72
aI1
aI75
aI62
aI63
aa(lp4966
I1
aI31
aI33
aI7
aa(lp4967
I44
aI84
aI65
aI31
aa(lp4968
I72
aI73
aI74
aI75
aI76
aI77
aI47
aI84
aI62
aa(lp4969
I1
aI77
aI61
aa(lp4970
I72
aI27
aI31
aI63
aa(lp4971
I72
aI74
aI76
aa(lp4972
I72
aI74
aI76
aI47
aI84
aI87
aI62
aa(lp4973
I9
aI15
aI62
aI1
aa(lp4974
I1
aI67
aI73
aI44
aI77
aI86
aI27
aa(lp4975
I1
aI75
aI44
aI63
aa(lp4976
I72
aI73
aI47
aI84
aI63
aa(lp4977
I72
aI65
aI75
aa(lp4978
I1
aI27
aI36
aa(lp4979
I10
aI3
aI85
aa(lp4980
I1
aI2
aI3
aI4
aI6
aI8
aI10
aa(lp4981
I1
aI78
aI79
aa(lp4982
I8
aI33
aI5
aa(lp4983
I1
aI84
aI85
aa(lp4984
I51
aI67
aI54
aI47
aa(lp4985
I1
aI67
aI31
aI73
aI44
aI77
aI27
aI62
aI63
aa(lp4986
I1
aI84
aI73
aa(lp4987
I16
aI1
aI28
aI62
aa(lp4988
I1
aI18
aI42
aa(lp4989
I1
aI42
aI18
aa(lp4990
I1
aI67
aI44
aI47
aI49
aI82
aI84
aI62
aa(lp4991
I48
aI49
aI67
aI51
aI47
aa(lp4992
I9
aI2
aI15
aI1
aa(lp4993
I1
aI3
aI4
aa(lp4994
I72
aI73
aI74
aI76
aI77
aI47
aI44
aa(lp4995
I64
aI72
aI62
aI63
aa(lp4996
I1
aI58
aI63
aa(lp4997
I44
aI46
aI79
aI81
aI82
aI47
aI62
aa(lp4998
I48
aI57
aI67
aI46
aI62
aa(lp4999
I8
aI1
aI10
aI3
aa(lp5000
I1
aI62
aI7
aa.