(dp0
Voutdoor
p1
I0
sVfood
p2
I1
sVindoor
p3
I2
sVappliance
p4
I3
sVkitchen
p5
I11
sVsports
p6
I4
sVperson
p7
I5
sVanimal
p8
I6
sVvehicle
p9
I7
sVaccessory
p10
I9
sVelectronic
p11
I10
sVfurniture
p12
I8
s.